Component: ARM Compiler 5.06 update 6 (build 750) Tool: armlink [4d35ed]

==============================================================================

Section Cross References

    startup_stm32f10x_md.o(RESET) refers to startup_stm32f10x_md.o(STACK) for __initial_sp
    startup_stm32f10x_md.o(RESET) refers to startup_stm32f10x_md.o(.text) for Reset_Handler
    startup_stm32f10x_md.o(RESET) refers to stm32f10x_it.o(i.NMI_Handler) for NMI_Handler
    startup_stm32f10x_md.o(RESET) refers to stm32f10x_it.o(i.HardFault_Handler) for HardFault_Handler
    startup_stm32f10x_md.o(RESET) refers to stm32f10x_it.o(i.MemManage_Handler) for MemManage_Handler
    startup_stm32f10x_md.o(RESET) refers to stm32f10x_it.o(i.BusFault_Handler) for BusFault_Handler
    startup_stm32f10x_md.o(RESET) refers to stm32f10x_it.o(i.UsageFault_Handler) for UsageFault_Handler
    startup_stm32f10x_md.o(RESET) refers to stm32f10x_it.o(i.SVC_Handler) for SVC_Handler
    startup_stm32f10x_md.o(RESET) refers to stm32f10x_it.o(i.DebugMon_Handler) for DebugMon_Handler
    startup_stm32f10x_md.o(RESET) refers to stm32f10x_it.o(i.PendSV_Handler) for PendSV_Handler
    startup_stm32f10x_md.o(RESET) refers to stm32f10x_it.o(i.SysTick_Handler) for SysTick_Handler
    startup_stm32f10x_md.o(RESET) refers to millis.o(i.RTC_IRQHandler) for RTC_IRQHandler
    startup_stm32f10x_md.o(RESET) refers to stm32f10x_it.o(i.EXTI4_IRQHandler) for EXTI4_IRQHandler
    startup_stm32f10x_md.o(RESET) refers to usart3.o(i.USART3_IRQHandler) for USART3_IRQHandler
    startup_stm32f10x_md.o(RESET) refers to millis.o(i.RTCAlarm_IRQHandler) for RTCAlarm_IRQHandler
    startup_stm32f10x_md.o(.text) refers to system_stm32f10x.o(i.SystemInit) for SystemInit
    startup_stm32f10x_md.o(.text) refers to entry.o(.ARM.Collect$$$$00000000) for __main
    system_stm32f10x.o(i.SetSysClock) refers to system_stm32f10x.o(i.SetSysClockTo72) for SetSysClockTo72
    system_stm32f10x.o(i.SystemCoreClockUpdate) refers to system_stm32f10x.o(.data) for SystemCoreClock
    system_stm32f10x.o(i.SystemInit) refers to system_stm32f10x.o(i.SetSysClock) for SetSysClock
    stm32f10x_adc.o(i.ADC_DeInit) refers to stm32f10x_rcc.o(i.RCC_APB2PeriphResetCmd) for RCC_APB2PeriphResetCmd
    stm32f10x_bkp.o(i.BKP_DeInit) refers to stm32f10x_rcc.o(i.RCC_BackupResetCmd) for RCC_BackupResetCmd
    stm32f10x_can.o(i.CAN_DeInit) refers to stm32f10x_rcc.o(i.RCC_APB1PeriphResetCmd) for RCC_APB1PeriphResetCmd
    stm32f10x_can.o(i.CAN_GetITStatus) refers to stm32f10x_can.o(i.CheckITStatus) for CheckITStatus
    stm32f10x_cec.o(i.CEC_DeInit) refers to stm32f10x_rcc.o(i.RCC_APB1PeriphResetCmd) for RCC_APB1PeriphResetCmd
    stm32f10x_dac.o(i.DAC_DeInit) refers to stm32f10x_rcc.o(i.RCC_APB1PeriphResetCmd) for RCC_APB1PeriphResetCmd
    stm32f10x_flash.o(i.FLASH_EnableWriteProtection) refers to stm32f10x_flash.o(i.FLASH_WaitForLastOperation) for FLASH_WaitForLastOperation
    stm32f10x_flash.o(i.FLASH_EraseAllBank1Pages) refers to stm32f10x_flash.o(i.FLASH_WaitForLastBank1Operation) for FLASH_WaitForLastBank1Operation
    stm32f10x_flash.o(i.FLASH_EraseAllPages) refers to stm32f10x_flash.o(i.FLASH_WaitForLastOperation) for FLASH_WaitForLastOperation
    stm32f10x_flash.o(i.FLASH_EraseOptionBytes) refers to stm32f10x_flash.o(i.FLASH_GetReadOutProtectionStatus) for FLASH_GetReadOutProtectionStatus
    stm32f10x_flash.o(i.FLASH_EraseOptionBytes) refers to stm32f10x_flash.o(i.FLASH_WaitForLastOperation) for FLASH_WaitForLastOperation
    stm32f10x_flash.o(i.FLASH_ErasePage) refers to stm32f10x_flash.o(i.FLASH_WaitForLastOperation) for FLASH_WaitForLastOperation
    stm32f10x_flash.o(i.FLASH_ProgramHalfWord) refers to stm32f10x_flash.o(i.FLASH_WaitForLastOperation) for FLASH_WaitForLastOperation
    stm32f10x_flash.o(i.FLASH_ProgramOptionByteData) refers to stm32f10x_flash.o(i.FLASH_WaitForLastOperation) for FLASH_WaitForLastOperation
    stm32f10x_flash.o(i.FLASH_ProgramWord) refers to stm32f10x_flash.o(i.FLASH_WaitForLastOperation) for FLASH_WaitForLastOperation
    stm32f10x_flash.o(i.FLASH_ReadOutProtection) refers to stm32f10x_flash.o(i.FLASH_WaitForLastOperation) for FLASH_WaitForLastOperation
    stm32f10x_flash.o(i.FLASH_UserOptionByteConfig) refers to stm32f10x_flash.o(i.FLASH_WaitForLastOperation) for FLASH_WaitForLastOperation
    stm32f10x_flash.o(i.FLASH_WaitForLastBank1Operation) refers to stm32f10x_flash.o(i.FLASH_GetBank1Status) for FLASH_GetBank1Status
    stm32f10x_flash.o(i.FLASH_WaitForLastOperation) refers to stm32f10x_flash.o(i.FLASH_GetBank1Status) for FLASH_GetBank1Status
    stm32f10x_gpio.o(i.GPIO_AFIODeInit) refers to stm32f10x_rcc.o(i.RCC_APB2PeriphResetCmd) for RCC_APB2PeriphResetCmd
    stm32f10x_gpio.o(i.GPIO_DeInit) refers to stm32f10x_rcc.o(i.RCC_APB2PeriphResetCmd) for RCC_APB2PeriphResetCmd
    stm32f10x_i2c.o(i.I2C_DeInit) refers to stm32f10x_rcc.o(i.RCC_APB1PeriphResetCmd) for RCC_APB1PeriphResetCmd
    stm32f10x_i2c.o(i.I2C_Init) refers to stm32f10x_rcc.o(i.RCC_GetClocksFreq) for RCC_GetClocksFreq
    stm32f10x_pwr.o(i.PWR_DeInit) refers to stm32f10x_rcc.o(i.RCC_APB1PeriphResetCmd) for RCC_APB1PeriphResetCmd
    stm32f10x_rcc.o(i.RCC_GetClocksFreq) refers to stm32f10x_rcc.o(.data) for APBAHBPrescTable
    stm32f10x_rcc.o(i.RCC_WaitForHSEStartUp) refers to stm32f10x_rcc.o(i.RCC_GetFlagStatus) for RCC_GetFlagStatus
    stm32f10x_rtc.o(i.RTC_SetAlarm) refers to stm32f10x_rtc.o(i.RTC_EnterConfigMode) for RTC_EnterConfigMode
    stm32f10x_rtc.o(i.RTC_SetAlarm) refers to stm32f10x_rtc.o(i.RTC_ExitConfigMode) for RTC_ExitConfigMode
    stm32f10x_rtc.o(i.RTC_SetCounter) refers to stm32f10x_rtc.o(i.RTC_EnterConfigMode) for RTC_EnterConfigMode
    stm32f10x_rtc.o(i.RTC_SetCounter) refers to stm32f10x_rtc.o(i.RTC_ExitConfigMode) for RTC_ExitConfigMode
    stm32f10x_rtc.o(i.RTC_SetPrescaler) refers to stm32f10x_rtc.o(i.RTC_EnterConfigMode) for RTC_EnterConfigMode
    stm32f10x_rtc.o(i.RTC_SetPrescaler) refers to stm32f10x_rtc.o(i.RTC_ExitConfigMode) for RTC_ExitConfigMode
    stm32f10x_spi.o(i.I2S_Init) refers to stm32f10x_rcc.o(i.RCC_GetClocksFreq) for RCC_GetClocksFreq
    stm32f10x_spi.o(i.SPI_I2S_DeInit) refers to stm32f10x_rcc.o(i.RCC_APB2PeriphResetCmd) for RCC_APB2PeriphResetCmd
    stm32f10x_spi.o(i.SPI_I2S_DeInit) refers to stm32f10x_rcc.o(i.RCC_APB1PeriphResetCmd) for RCC_APB1PeriphResetCmd
    stm32f10x_tim.o(i.TIM_DeInit) refers to stm32f10x_rcc.o(i.RCC_APB2PeriphResetCmd) for RCC_APB2PeriphResetCmd
    stm32f10x_tim.o(i.TIM_DeInit) refers to stm32f10x_rcc.o(i.RCC_APB1PeriphResetCmd) for RCC_APB1PeriphResetCmd
    stm32f10x_tim.o(i.TIM_ETRClockMode1Config) refers to stm32f10x_tim.o(i.TIM_ETRConfig) for TIM_ETRConfig
    stm32f10x_tim.o(i.TIM_ETRClockMode2Config) refers to stm32f10x_tim.o(i.TIM_ETRConfig) for TIM_ETRConfig
    stm32f10x_tim.o(i.TIM_ICInit) refers to stm32f10x_tim.o(i.TI1_Config) for TI1_Config
    stm32f10x_tim.o(i.TIM_ICInit) refers to stm32f10x_tim.o(i.TIM_SetIC1Prescaler) for TIM_SetIC1Prescaler
    stm32f10x_tim.o(i.TIM_ICInit) refers to stm32f10x_tim.o(i.TI2_Config) for TI2_Config
    stm32f10x_tim.o(i.TIM_ICInit) refers to stm32f10x_tim.o(i.TIM_SetIC2Prescaler) for TIM_SetIC2Prescaler
    stm32f10x_tim.o(i.TIM_ICInit) refers to stm32f10x_tim.o(i.TI3_Config) for TI3_Config
    stm32f10x_tim.o(i.TIM_ICInit) refers to stm32f10x_tim.o(i.TIM_SetIC3Prescaler) for TIM_SetIC3Prescaler
    stm32f10x_tim.o(i.TIM_ICInit) refers to stm32f10x_tim.o(i.TI4_Config) for TI4_Config
    stm32f10x_tim.o(i.TIM_ICInit) refers to stm32f10x_tim.o(i.TIM_SetIC4Prescaler) for TIM_SetIC4Prescaler
    stm32f10x_tim.o(i.TIM_ITRxExternalClockConfig) refers to stm32f10x_tim.o(i.TIM_SelectInputTrigger) for TIM_SelectInputTrigger
    stm32f10x_tim.o(i.TIM_PWMIConfig) refers to stm32f10x_tim.o(i.TI1_Config) for TI1_Config
    stm32f10x_tim.o(i.TIM_PWMIConfig) refers to stm32f10x_tim.o(i.TIM_SetIC1Prescaler) for TIM_SetIC1Prescaler
    stm32f10x_tim.o(i.TIM_PWMIConfig) refers to stm32f10x_tim.o(i.TI2_Config) for TI2_Config
    stm32f10x_tim.o(i.TIM_PWMIConfig) refers to stm32f10x_tim.o(i.TIM_SetIC2Prescaler) for TIM_SetIC2Prescaler
    stm32f10x_tim.o(i.TIM_TIxExternalClockConfig) refers to stm32f10x_tim.o(i.TI2_Config) for TI2_Config
    stm32f10x_tim.o(i.TIM_TIxExternalClockConfig) refers to stm32f10x_tim.o(i.TI1_Config) for TI1_Config
    stm32f10x_tim.o(i.TIM_TIxExternalClockConfig) refers to stm32f10x_tim.o(i.TIM_SelectInputTrigger) for TIM_SelectInputTrigger
    stm32f10x_usart.o(i.USART_DeInit) refers to stm32f10x_rcc.o(i.RCC_APB2PeriphResetCmd) for RCC_APB2PeriphResetCmd
    stm32f10x_usart.o(i.USART_DeInit) refers to stm32f10x_rcc.o(i.RCC_APB1PeriphResetCmd) for RCC_APB1PeriphResetCmd
    stm32f10x_usart.o(i.USART_Init) refers to stm32f10x_rcc.o(i.RCC_GetClocksFreq) for RCC_GetClocksFreq
    stm32f10x_wwdg.o(i.WWDG_DeInit) refers to stm32f10x_rcc.o(i.RCC_APB1PeriphResetCmd) for RCC_APB1PeriphResetCmd
    main.o(i.main) refers to all_init.o(i.all_init) for all_init
    main.o(i.main) refers to millis.o(i.millis) for millis
    main.o(i.main) refers to yun.o(i.checkin) for checkin
    main.o(i.main) refers to yun.o(i.check_status) for check_status
    main.o(i.main) refers to bsp_dht11.o(i.DHT11_Read_TempAndHumidity) for DHT11_Read_TempAndHumidity
    main.o(i.main) refers to math_display.o(i.display_num) for display_num
    main.o(i.main) refers to ffltui.o(.text) for __aeabi_ui2f
    main.o(i.main) refers to f2d.o(.text) for __aeabi_f2d
    main.o(i.main) refers to ddiv.o(.text) for __aeabi_ddiv
    main.o(i.main) refers to dadd.o(.text) for __aeabi_dadd
    main.o(i.main) refers to d2f.o(.text) for __aeabi_d2f
    main.o(i.main) refers to stm32f10x_gpio.o(i.GPIO_ReadInputDataBit) for GPIO_ReadInputDataBit
    main.o(i.main) refers to yun.o(i.update4) for update4
    main.o(i.main) refers to main.o(i.processMessage) for processMessage
    main.o(i.main) refers to main.o(.data) for lastCheckInTime
    main.o(i.main) refers to main.o(.bss) for aRxBuffer
    main.o(i.processMessage) refers to cjson.o(i.cJSON_Parse) for cJSON_Parse
    main.o(i.processMessage) refers to cjson.o(i.cJSON_GetObjectItem) for cJSON_GetObjectItem
    main.o(i.processMessage) refers to strncmp.o(.text) for strncmp
    main.o(i.processMessage) refers to yun.o(i.checkout) for checkout
    main.o(i.processMessage) refers to bsp_systick.o(i.Delay_us) for Delay_us
    main.o(i.processMessage) refers to yun.o(i.checkin) for checkin
    main.o(i.processMessage) refers to memcpya.o(.text) for __aeabi_memcpy4
    main.o(i.processMessage) refers to yun.o(i.say) for say
    main.o(i.processMessage) refers to millis.o(i.millis) for millis
    main.o(i.processMessage) refers to led.o(i.Led_On) for Led_On
    main.o(i.processMessage) refers to led.o(i.Led_Off) for Led_Off
    main.o(i.processMessage) refers to stm32f10x_gpio.o(i.GPIO_SetBits) for GPIO_SetBits
    main.o(i.processMessage) refers to stm32f10x_gpio.o(i.GPIO_ResetBits) for GPIO_ResetBits
    main.o(i.processMessage) refers to stepmotor.o(i.Motor_angle) for Motor_angle
    main.o(i.processMessage) refers to cjson.o(i.cJSON_Delete) for cJSON_Delete
    main.o(i.processMessage) refers to main.o(.data) for lastSayTime
    stm32f10x_it.o(i.EXTI4_IRQHandler) refers to stm32f10x_exti.o(i.EXTI_GetITStatus) for EXTI_GetITStatus
    stm32f10x_it.o(i.EXTI4_IRQHandler) refers to stm32f10x_gpio.o(i.GPIO_ReadInputDataBit) for GPIO_ReadInputDataBit
    stm32f10x_it.o(i.EXTI4_IRQHandler) refers to stm32f10x_gpio.o(i.GPIO_SetBits) for GPIO_SetBits
    stm32f10x_it.o(i.EXTI4_IRQHandler) refers to yun.o(i.alert) for alert
    stm32f10x_it.o(i.EXTI4_IRQHandler) refers to oled.o(i.OLED_WrCmd) for OLED_WrCmd
    stm32f10x_it.o(i.EXTI4_IRQHandler) refers to oled.o(i.show_state) for show_state
    stm32f10x_it.o(i.EXTI4_IRQHandler) refers to stm32f10x_gpio.o(i.GPIO_ResetBits) for GPIO_ResetBits
    stm32f10x_it.o(i.EXTI4_IRQHandler) refers to stm32f10x_exti.o(i.EXTI_ClearITPendingBit) for EXTI_ClearITPendingBit
    stm32f10x_it.o(i.SysTick_Handler) refers to bsp_systick.o(i.TimingDelay_Decrement) for TimingDelay_Decrement
    bsp_dht11.o(i.DHT11_GPIO_Config) refers to stm32f10x_rcc.o(i.RCC_APB2PeriphClockCmd) for RCC_APB2PeriphClockCmd
    bsp_dht11.o(i.DHT11_GPIO_Config) refers to stm32f10x_gpio.o(i.GPIO_Init) for GPIO_Init
    bsp_dht11.o(i.DHT11_Init) refers to bsp_dht11.o(i.DHT11_GPIO_Config) for DHT11_GPIO_Config
    bsp_dht11.o(i.DHT11_Init) refers to stm32f10x_gpio.o(i.GPIO_SetBits) for GPIO_SetBits
    bsp_dht11.o(i.DHT11_Mode_IPU) refers to stm32f10x_gpio.o(i.GPIO_Init) for GPIO_Init
    bsp_dht11.o(i.DHT11_Mode_Out_PP) refers to stm32f10x_gpio.o(i.GPIO_Init) for GPIO_Init
    bsp_dht11.o(i.DHT11_ReadByte) refers to stm32f10x_gpio.o(i.GPIO_ReadInputDataBit) for GPIO_ReadInputDataBit
    bsp_dht11.o(i.DHT11_ReadByte) refers to bsp_systick.o(i.Delay_us) for Delay_us
    bsp_dht11.o(i.DHT11_Read_TempAndHumidity) refers to bsp_dht11.o(i.DHT11_Mode_Out_PP) for DHT11_Mode_Out_PP
    bsp_dht11.o(i.DHT11_Read_TempAndHumidity) refers to stm32f10x_gpio.o(i.GPIO_ResetBits) for GPIO_ResetBits
    bsp_dht11.o(i.DHT11_Read_TempAndHumidity) refers to bsp_systick.o(i.Delay_us) for Delay_us
    bsp_dht11.o(i.DHT11_Read_TempAndHumidity) refers to stm32f10x_gpio.o(i.GPIO_SetBits) for GPIO_SetBits
    bsp_dht11.o(i.DHT11_Read_TempAndHumidity) refers to bsp_dht11.o(i.DHT11_Mode_IPU) for DHT11_Mode_IPU
    bsp_dht11.o(i.DHT11_Read_TempAndHumidity) refers to stm32f10x_gpio.o(i.GPIO_ReadInputDataBit) for GPIO_ReadInputDataBit
    bsp_dht11.o(i.DHT11_Read_TempAndHumidity) refers to bsp_dht11.o(i.DHT11_ReadByte) for DHT11_ReadByte
    oled.o(i.OLED_16x16CN) refers to oled.o(i.OLED_SetPos) for OLED_SetPos
    oled.o(i.OLED_16x16CN) refers to oled.o(i.OLED_WrDat) for OLED_WrDat
    oled.o(i.OLED_16x16CN) refers to oled.o(.constdata) for F16x16
    oled.o(i.OLED_16x16CN_S_F) refers to oled.o(i.OLED_SetPos) for OLED_SetPos
    oled.o(i.OLED_16x16CN_S_F) refers to oled.o(i.OLED_WrDat) for OLED_WrDat
    oled.o(i.OLED_16x16CN_S_F) refers to oled.o(.constdata) for F16x16_S_F
    oled.o(i.OLED_16x16CN_TIMU) refers to oled.o(i.OLED_SetPos) for OLED_SetPos
    oled.o(i.OLED_16x16CN_TIMU) refers to oled.o(i.OLED_WrDat) for OLED_WrDat
    oled.o(i.OLED_16x16CN_TIMU) refers to oled.o(.constdata) for F16x16_TIMU
    oled.o(i.OLED_16x16CN_WENDU) refers to oled.o(i.OLED_SetPos) for OLED_SetPos
    oled.o(i.OLED_16x16CN_WENDU) refers to oled.o(i.OLED_WrDat) for OLED_WrDat
    oled.o(i.OLED_16x16CN_WENDU) refers to oled.o(.constdata) for F16x16_WENDU
    oled.o(i.OLED_16x16CN_W_F) refers to oled.o(i.OLED_SetPos) for OLED_SetPos
    oled.o(i.OLED_16x16CN_W_F) refers to oled.o(i.OLED_WrDat) for OLED_WrDat
    oled.o(i.OLED_16x16CN_W_F) refers to oled.o(.constdata) for F16x16_W_F
    oled.o(i.OLED_16x16CN_XIAOFANG) refers to oled.o(i.OLED_SetPos) for OLED_SetPos
    oled.o(i.OLED_16x16CN_XIAOFANG) refers to oled.o(i.OLED_WrDat) for OLED_WrDat
    oled.o(i.OLED_16x16CN_XIAOFANG) refers to oled.o(.constdata) for F16x16_XIAOFANG
    oled.o(i.OLED_16x16CN_YICHANG) refers to oled.o(i.OLED_SetPos) for OLED_SetPos
    oled.o(i.OLED_16x16CN_YICHANG) refers to oled.o(i.OLED_WrDat) for OLED_WrDat
    oled.o(i.OLED_16x16CN_YICHANG) refers to oled.o(.constdata) for F16x16_YICHANG
    oled.o(i.OLED_16x16CN_ZHENCHANG) refers to oled.o(i.OLED_SetPos) for OLED_SetPos
    oled.o(i.OLED_16x16CN_ZHENCHANG) refers to oled.o(i.OLED_WrDat) for OLED_WrDat
    oled.o(i.OLED_16x16CN_ZHENCHANG) refers to oled.o(.constdata) for F16x16_ZHENCHANG
    oled.o(i.OLED_6x8Str) refers to oled.o(i.OLED_SetPos) for OLED_SetPos
    oled.o(i.OLED_6x8Str) refers to oled.o(i.OLED_WrDat) for OLED_WrDat
    oled.o(i.OLED_6x8Str) refers to oled.o(.constdata) for F6x8
    oled.o(i.OLED_8x16Str) refers to oled.o(i.OLED_SetPos) for OLED_SetPos
    oled.o(i.OLED_8x16Str) refers to oled.o(i.OLED_WrDat) for OLED_WrDat
    oled.o(i.OLED_8x16Str) refers to oled.o(.constdata) for F8X16
    oled.o(i.OLED_BMP) refers to oled.o(i.OLED_SetPos) for OLED_SetPos
    oled.o(i.OLED_BMP) refers to oled.o(i.OLED_WrDat) for OLED_WrDat
    oled.o(i.OLED_CLS) refers to oled.o(i.OLED_Fill) for OLED_Fill
    oled.o(i.OLED_Fill) refers to oled.o(i.OLED_WrCmd) for OLED_WrCmd
    oled.o(i.OLED_Fill) refers to oled.o(i.OLED_WrDat) for OLED_WrDat
    oled.o(i.OLED_Init) refers to stm32f10x_rcc.o(i.RCC_APB2PeriphClockCmd) for RCC_APB2PeriphClockCmd
    oled.o(i.OLED_Init) refers to stm32f10x_gpio.o(i.GPIO_Init) for GPIO_Init
    oled.o(i.OLED_Init) refers to stm32f10x_gpio.o(i.GPIO_SetBits) for GPIO_SetBits
    oled.o(i.OLED_Init) refers to stm32f10x_gpio.o(i.GPIO_ResetBits) for GPIO_ResetBits
    oled.o(i.OLED_Init) refers to bsp_systick.o(i.Delay_us) for Delay_us
    oled.o(i.OLED_Init) refers to oled.o(i.OLED_WrCmd) for OLED_WrCmd
    oled.o(i.OLED_Init) refers to oled.o(i.OLED_Fill) for OLED_Fill
    oled.o(i.OLED_Init) refers to oled.o(i.OLED_SetPos) for OLED_SetPos
    oled.o(i.OLED_SetPos) refers to oled.o(i.OLED_WrCmd) for OLED_WrCmd
    oled.o(i.OLED_WrCmd) refers to stm32f10x_gpio.o(i.GPIO_ResetBits) for GPIO_ResetBits
    oled.o(i.OLED_WrCmd) refers to stm32f10x_gpio.o(i.GPIO_SetBits) for GPIO_SetBits
    oled.o(i.OLED_WrDat) refers to stm32f10x_gpio.o(i.GPIO_SetBits) for GPIO_SetBits
    oled.o(i.OLED_WrDat) refers to stm32f10x_gpio.o(i.GPIO_ResetBits) for GPIO_ResetBits
    oled.o(i.show_first) refers to oled.o(i.OLED_16x16CN) for OLED_16x16CN
    oled.o(i.show_state) refers to oled.o(i.OLED_16x16CN_ZHENCHANG) for OLED_16x16CN_ZHENCHANG
    oled.o(i.show_state) refers to oled.o(i.OLED_16x16CN_YICHANG) for OLED_16x16CN_YICHANG
    oled.o(i.show_stay) refers to oled.o(i.OLED_16x16CN_TIMU) for OLED_16x16CN_TIMU
    oled.o(i.show_stay) refers to oled.o(i.OLED_16x16CN_WENDU) for OLED_16x16CN_WENDU
    oled.o(i.show_stay) refers to oled.o(i.OLED_16x16CN_XIAOFANG) for OLED_16x16CN_XIAOFANG
    oled.o(i.show_stay) refers to oled.o(i.OLED_16x16CN_W_F) for OLED_16x16CN_W_F
    oled.o(i.show_stay) refers to oled.o(i.OLED_16x16CN_S_F) for OLED_16x16CN_S_F
    bsp_systick.o(i.Delay_us) refers to bsp_systick.o(.data) for TimingDelay
    bsp_systick.o(i.SysTick_Init) refers to system_stm32f10x.o(.data) for SystemCoreClock
    bsp_systick.o(i.TimingDelay_Decrement) refers to bsp_systick.o(.data) for TimingDelay
    floattos.o(i.float_to_s) refers to ddiv.o(.text) for __aeabi_ddiv
    floattos.o(i.float_to_s) refers to dfixi.o(.text) for __aeabi_d2iz
    floattos.o(i.float_to_s) refers to dmul.o(.text) for __aeabi_dmul
    floattos.o(i.float_to_s) refers to floattos.o(.data) for table
    math_display.o(i.display) refers to bsp_dht11.o(i.DHT11_Read_TempAndHumidity) for DHT11_Read_TempAndHumidity
    math_display.o(i.display) refers to math_display.o(i.display_num) for display_num
    math_display.o(i.display) refers to bsp_systick.o(i.Delay_us) for Delay_us
    math_display.o(i.display_num) refers to math_display.o(i.maths) for maths
    math_display.o(i.display_num) refers to f2d.o(.text) for __aeabi_f2d
    math_display.o(i.display_num) refers to floattos.o(i.float_to_s) for float_to_s
    math_display.o(i.display_num) refers to oled.o(i.OLED_8x16Str) for OLED_8x16Str
    math_display.o(i.maths) refers to fflti.o(.text) for __aeabi_i2f
    math_display.o(i.maths) refers to f2d.o(.text) for __aeabi_f2d
    math_display.o(i.maths) refers to ddiv.o(.text) for __aeabi_ddiv
    math_display.o(i.maths) refers to d2f.o(.text) for __aeabi_d2f
    math_display.o(i.maths) refers to fadd.o(.text) for __aeabi_fadd
    smoke.o(i.EXTI_SMOKE_Config) refers to stm32f10x_rcc.o(i.RCC_APB2PeriphClockCmd) for RCC_APB2PeriphClockCmd
    smoke.o(i.EXTI_SMOKE_Config) refers to smoke.o(i.SMOKE_NVIC_Configuration) for SMOKE_NVIC_Configuration
    smoke.o(i.EXTI_SMOKE_Config) refers to stm32f10x_gpio.o(i.GPIO_Init) for GPIO_Init
    smoke.o(i.EXTI_SMOKE_Config) refers to stm32f10x_gpio.o(i.GPIO_EXTILineConfig) for GPIO_EXTILineConfig
    smoke.o(i.EXTI_SMOKE_Config) refers to stm32f10x_exti.o(i.EXTI_Init) for EXTI_Init
    smoke.o(i.SMOKE_NVIC_Configuration) refers to misc.o(i.NVIC_PriorityGroupConfig) for NVIC_PriorityGroupConfig
    smoke.o(i.SMOKE_NVIC_Configuration) refers to misc.o(i.NVIC_Init) for NVIC_Init
    infrare.o(i.EXTI_INFRARE_Config) refers to stm32f10x_rcc.o(i.RCC_APB2PeriphClockCmd) for RCC_APB2PeriphClockCmd
    infrare.o(i.EXTI_INFRARE_Config) refers to infrare.o(i.INFRARE_NVIC_Configuration) for INFRARE_NVIC_Configuration
    infrare.o(i.EXTI_INFRARE_Config) refers to stm32f10x_gpio.o(i.GPIO_Init) for GPIO_Init
    infrare.o(i.EXTI_INFRARE_Config) refers to infrare.o(i.Infrare_BUTTON_Mode_IPD) for Infrare_BUTTON_Mode_IPD
    infrare.o(i.EXTI_INFRARE_Config) refers to stm32f10x_gpio.o(i.GPIO_EXTILineConfig) for GPIO_EXTILineConfig
    infrare.o(i.EXTI_INFRARE_Config) refers to stm32f10x_exti.o(i.EXTI_Init) for EXTI_Init
    infrare.o(i.INFRARE_NVIC_Configuration) refers to misc.o(i.NVIC_PriorityGroupConfig) for NVIC_PriorityGroupConfig
    infrare.o(i.INFRARE_NVIC_Configuration) refers to misc.o(i.NVIC_Init) for NVIC_Init
    infrare.o(i.Infrare_BUTTON_Mode_IPD) refers to stm32f10x_gpio.o(i.GPIO_Init) for GPIO_Init
    all_init.o(i.all_init) refers to bsp_systick.o(i.SysTick_Init) for SysTick_Init
    all_init.o(i.all_init) refers to bsp_dht11.o(i.DHT11_Init) for DHT11_Init
    all_init.o(i.all_init) refers to oled.o(i.OLED_Init) for OLED_Init
    all_init.o(i.all_init) refers to led.o(i.LED_Init) for LED_Init
    all_init.o(i.all_init) refers to usart3.o(i.USART3_Config) for USART3_Config
    all_init.o(i.all_init) refers to bsp_beep.o(i.Beep_Init) for Beep_Init
    all_init.o(i.all_init) refers to millis.o(i.MILLIS_Init) for MILLIS_Init
    all_init.o(i.all_init) refers to oled.o(i.show_first) for show_first
    all_init.o(i.all_init) refers to bsp_systick.o(i.Delay_us) for Delay_us
    all_init.o(i.all_init) refers to oled.o(i.OLED_CLS) for OLED_CLS
    all_init.o(i.all_init) refers to oled.o(i.show_stay) for show_stay
    all_init.o(i.all_init) refers to stepmotor.o(i.Moto_Init) for Moto_Init
    all_init.o(i.all_init) refers to smoke.o(i.EXTI_SMOKE_Config) for EXTI_SMOKE_Config
    cjson.o(i.cJSON_AddItemReferenceToArray) refers to cjson.o(i.create_reference) for create_reference
    cjson.o(i.cJSON_AddItemReferenceToArray) refers to cjson.o(i.cJSON_AddItemToArray) for cJSON_AddItemToArray
    cjson.o(i.cJSON_AddItemReferenceToArray) refers to cjson.o(.data) for global_hooks
    cjson.o(i.cJSON_AddItemReferenceToObject) refers to cjson.o(i.create_reference) for create_reference
    cjson.o(i.cJSON_AddItemReferenceToObject) refers to cjson.o(i.cJSON_AddItemToObject) for cJSON_AddItemToObject
    cjson.o(i.cJSON_AddItemReferenceToObject) refers to cjson.o(.data) for global_hooks
    cjson.o(i.cJSON_AddItemToArray) refers to cjson.o(i.suffix_object) for suffix_object
    cjson.o(i.cJSON_AddItemToObject) refers to cjson.o(i.cJSON_strdup) for cJSON_strdup
    cjson.o(i.cJSON_AddItemToObject) refers to cjson.o(i.cJSON_AddItemToObjectCS) for cJSON_AddItemToObjectCS
    cjson.o(i.cJSON_AddItemToObject) refers to cjson.o(.data) for global_hooks
    cjson.o(i.cJSON_AddItemToObjectCS) refers to cjson.o(i.cJSON_AddItemToArray) for cJSON_AddItemToArray
    cjson.o(i.cJSON_AddItemToObjectCS) refers to cjson.o(.data) for global_hooks
    cjson.o(i.cJSON_Compare) refers to cjson.o(i.cJSON_IsInvalid) for cJSON_IsInvalid
    cjson.o(i.cJSON_Compare) refers to cdcmple.o(.text) for __aeabi_cdcmpeq
    cjson.o(i.cJSON_Compare) refers to strcmp.o(.text) for strcmp
    cjson.o(i.cJSON_Compare) refers to cjson.o(i.get_object_item) for get_object_item
    cjson.o(i.cJSON_CreateArray) refers to cjson.o(i.cJSON_New_Item) for cJSON_New_Item
    cjson.o(i.cJSON_CreateArray) refers to cjson.o(.data) for global_hooks
    cjson.o(i.cJSON_CreateBool) refers to cjson.o(i.cJSON_New_Item) for cJSON_New_Item
    cjson.o(i.cJSON_CreateBool) refers to cjson.o(.data) for global_hooks
    cjson.o(i.cJSON_CreateDoubleArray) refers to cjson.o(i.cJSON_CreateArray) for cJSON_CreateArray
    cjson.o(i.cJSON_CreateDoubleArray) refers to cjson.o(i.cJSON_CreateNumber) for cJSON_CreateNumber
    cjson.o(i.cJSON_CreateDoubleArray) refers to cjson.o(i.cJSON_Delete) for cJSON_Delete
    cjson.o(i.cJSON_CreateDoubleArray) refers to cjson.o(i.suffix_object) for suffix_object
    cjson.o(i.cJSON_CreateFalse) refers to cjson.o(i.cJSON_New_Item) for cJSON_New_Item
    cjson.o(i.cJSON_CreateFalse) refers to cjson.o(.data) for global_hooks
    cjson.o(i.cJSON_CreateFloatArray) refers to cjson.o(i.cJSON_CreateArray) for cJSON_CreateArray
    cjson.o(i.cJSON_CreateFloatArray) refers to f2d.o(.text) for __aeabi_f2d
    cjson.o(i.cJSON_CreateFloatArray) refers to cjson.o(i.cJSON_CreateNumber) for cJSON_CreateNumber
    cjson.o(i.cJSON_CreateFloatArray) refers to cjson.o(i.cJSON_Delete) for cJSON_Delete
    cjson.o(i.cJSON_CreateFloatArray) refers to cjson.o(i.suffix_object) for suffix_object
    cjson.o(i.cJSON_CreateIntArray) refers to cjson.o(i.cJSON_CreateArray) for cJSON_CreateArray
    cjson.o(i.cJSON_CreateIntArray) refers to dflti.o(.text) for __aeabi_i2d
    cjson.o(i.cJSON_CreateIntArray) refers to cjson.o(i.cJSON_CreateNumber) for cJSON_CreateNumber
    cjson.o(i.cJSON_CreateIntArray) refers to cjson.o(i.cJSON_Delete) for cJSON_Delete
    cjson.o(i.cJSON_CreateIntArray) refers to cjson.o(i.suffix_object) for suffix_object
    cjson.o(i.cJSON_CreateNull) refers to cjson.o(i.cJSON_New_Item) for cJSON_New_Item
    cjson.o(i.cJSON_CreateNull) refers to cjson.o(.data) for global_hooks
    cjson.o(i.cJSON_CreateNumber) refers to cjson.o(i.cJSON_New_Item) for cJSON_New_Item
    cjson.o(i.cJSON_CreateNumber) refers to cdrcmple.o(.text) for __aeabi_cdrcmple
    cjson.o(i.cJSON_CreateNumber) refers to cdcmple.o(.text) for __aeabi_cdcmple
    cjson.o(i.cJSON_CreateNumber) refers to dfixi.o(.text) for __aeabi_d2iz
    cjson.o(i.cJSON_CreateNumber) refers to cjson.o(.data) for global_hooks
    cjson.o(i.cJSON_CreateObject) refers to cjson.o(i.cJSON_New_Item) for cJSON_New_Item
    cjson.o(i.cJSON_CreateObject) refers to cjson.o(.data) for global_hooks
    cjson.o(i.cJSON_CreateRaw) refers to cjson.o(i.cJSON_New_Item) for cJSON_New_Item
    cjson.o(i.cJSON_CreateRaw) refers to cjson.o(i.cJSON_strdup) for cJSON_strdup
    cjson.o(i.cJSON_CreateRaw) refers to cjson.o(i.cJSON_Delete) for cJSON_Delete
    cjson.o(i.cJSON_CreateRaw) refers to cjson.o(.data) for global_hooks
    cjson.o(i.cJSON_CreateString) refers to cjson.o(i.cJSON_New_Item) for cJSON_New_Item
    cjson.o(i.cJSON_CreateString) refers to cjson.o(i.cJSON_strdup) for cJSON_strdup
    cjson.o(i.cJSON_CreateString) refers to cjson.o(i.cJSON_Delete) for cJSON_Delete
    cjson.o(i.cJSON_CreateString) refers to cjson.o(.data) for global_hooks
    cjson.o(i.cJSON_CreateStringArray) refers to cjson.o(i.cJSON_CreateArray) for cJSON_CreateArray
    cjson.o(i.cJSON_CreateStringArray) refers to cjson.o(i.cJSON_CreateString) for cJSON_CreateString
    cjson.o(i.cJSON_CreateStringArray) refers to cjson.o(i.cJSON_Delete) for cJSON_Delete
    cjson.o(i.cJSON_CreateStringArray) refers to cjson.o(i.suffix_object) for suffix_object
    cjson.o(i.cJSON_CreateTrue) refers to cjson.o(i.cJSON_New_Item) for cJSON_New_Item
    cjson.o(i.cJSON_CreateTrue) refers to cjson.o(.data) for global_hooks
    cjson.o(i.cJSON_Delete) refers to cjson.o(.data) for global_hooks
    cjson.o(i.cJSON_DeleteItemFromArray) refers to cjson.o(i.cJSON_DetachItemFromArray) for cJSON_DetachItemFromArray
    cjson.o(i.cJSON_DeleteItemFromArray) refers to cjson.o(i.cJSON_Delete) for cJSON_Delete
    cjson.o(i.cJSON_DeleteItemFromObject) refers to cjson.o(i.cJSON_DetachItemFromObject) for cJSON_DetachItemFromObject
    cjson.o(i.cJSON_DeleteItemFromObject) refers to cjson.o(i.cJSON_Delete) for cJSON_Delete
    cjson.o(i.cJSON_DeleteItemFromObjectCaseSensitive) refers to cjson.o(i.cJSON_DetachItemFromObjectCaseSensitive) for cJSON_DetachItemFromObjectCaseSensitive
    cjson.o(i.cJSON_DeleteItemFromObjectCaseSensitive) refers to cjson.o(i.cJSON_Delete) for cJSON_Delete
    cjson.o(i.cJSON_DetachItemFromArray) refers to cjson.o(i.get_array_item) for get_array_item
    cjson.o(i.cJSON_DetachItemFromArray) refers to cjson.o(i.cJSON_DetachItemViaPointer) for cJSON_DetachItemViaPointer
    cjson.o(i.cJSON_DetachItemFromObject) refers to cjson.o(i.cJSON_GetObjectItem) for cJSON_GetObjectItem
    cjson.o(i.cJSON_DetachItemFromObject) refers to cjson.o(i.cJSON_DetachItemViaPointer) for cJSON_DetachItemViaPointer
    cjson.o(i.cJSON_DetachItemFromObjectCaseSensitive) refers to cjson.o(i.cJSON_GetObjectItemCaseSensitive) for cJSON_GetObjectItemCaseSensitive
    cjson.o(i.cJSON_DetachItemFromObjectCaseSensitive) refers to cjson.o(i.cJSON_DetachItemViaPointer) for cJSON_DetachItemViaPointer
    cjson.o(i.cJSON_Duplicate) refers to cjson.o(i.cJSON_New_Item) for cJSON_New_Item
    cjson.o(i.cJSON_Duplicate) refers to cjson.o(i.cJSON_strdup) for cJSON_strdup
    cjson.o(i.cJSON_Duplicate) refers to cjson.o(i.cJSON_Delete) for cJSON_Delete
    cjson.o(i.cJSON_Duplicate) refers to cjson.o(.data) for global_hooks
    cjson.o(i.cJSON_GetArrayItem) refers to cjson.o(i.get_array_item) for get_array_item
    cjson.o(i.cJSON_GetErrorPtr) refers to cjson.o(.data) for global_error
    cjson.o(i.cJSON_GetObjectItem) refers to cjson.o(i.get_object_item) for get_object_item
    cjson.o(i.cJSON_GetObjectItemCaseSensitive) refers to cjson.o(i.get_object_item) for get_object_item
    cjson.o(i.cJSON_HasObjectItem) refers to cjson.o(i.cJSON_GetObjectItem) for cJSON_GetObjectItem
    cjson.o(i.cJSON_InitHooks) refers to mallocr.o(i.__malloc$realloc) for malloc
    cjson.o(i.cJSON_InitHooks) refers to cjson.o(.data) for global_hooks
    cjson.o(i.cJSON_InitHooks) refers to mallocr.o(i.__free$realloc) for free
    cjson.o(i.cJSON_InitHooks) refers to mallocr.o(i.realloc) for realloc
    cjson.o(i.cJSON_InsertItemInArray) refers to cjson.o(i.get_array_item) for get_array_item
    cjson.o(i.cJSON_InsertItemInArray) refers to cjson.o(i.cJSON_AddItemToArray) for cJSON_AddItemToArray
    cjson.o(i.cJSON_New_Item) refers to memseta.o(.text) for __aeabi_memclr4
    cjson.o(i.cJSON_Parse) refers to cjson.o(i.cJSON_ParseWithOpts) for cJSON_ParseWithOpts
    cjson.o(i.cJSON_ParseWithOpts) refers to memseta.o(.text) for __aeabi_memclr4
    cjson.o(i.cJSON_ParseWithOpts) refers to strlen.o(.text) for strlen
    cjson.o(i.cJSON_ParseWithOpts) refers to cjson.o(i.cJSON_New_Item) for cJSON_New_Item
    cjson.o(i.cJSON_ParseWithOpts) refers to cjson.o(i.buffer_skip_whitespace) for buffer_skip_whitespace
    cjson.o(i.cJSON_ParseWithOpts) refers to cjson.o(i.parse_value) for parse_value
    cjson.o(i.cJSON_ParseWithOpts) refers to cjson.o(i.cJSON_Delete) for cJSON_Delete
    cjson.o(i.cJSON_ParseWithOpts) refers to cjson.o(.data) for global_error
    cjson.o(i.cJSON_Print) refers to cjson.o(i.print) for print
    cjson.o(i.cJSON_Print) refers to cjson.o(.data) for global_hooks
    cjson.o(i.cJSON_PrintBuffered) refers to memseta.o(.text) for __aeabi_memclr4
    cjson.o(i.cJSON_PrintBuffered) refers to cjson.o(i.print_value) for print_value
    cjson.o(i.cJSON_PrintBuffered) refers to cjson.o(.data) for global_hooks
    cjson.o(i.cJSON_PrintPreallocated) refers to memseta.o(.text) for __aeabi_memclr4
    cjson.o(i.cJSON_PrintPreallocated) refers to cjson.o(i.print_value) for print_value
    cjson.o(i.cJSON_PrintPreallocated) refers to cjson.o(.data) for global_hooks
    cjson.o(i.cJSON_PrintUnformatted) refers to cjson.o(i.print) for print
    cjson.o(i.cJSON_PrintUnformatted) refers to cjson.o(.data) for global_hooks
    cjson.o(i.cJSON_ReplaceItemInArray) refers to cjson.o(i.get_array_item) for get_array_item
    cjson.o(i.cJSON_ReplaceItemInArray) refers to cjson.o(i.cJSON_ReplaceItemViaPointer) for cJSON_ReplaceItemViaPointer
    cjson.o(i.cJSON_ReplaceItemInObject) refers to cjson.o(i.replace_item_in_object) for replace_item_in_object
    cjson.o(i.cJSON_ReplaceItemInObjectCaseSensitive) refers to cjson.o(i.replace_item_in_object) for replace_item_in_object
    cjson.o(i.cJSON_ReplaceItemViaPointer) refers to cjson.o(i.cJSON_Delete) for cJSON_Delete
    cjson.o(i.cJSON_SetNumberHelper) refers to cdrcmple.o(.text) for __aeabi_cdrcmple
    cjson.o(i.cJSON_SetNumberHelper) refers to cdcmple.o(.text) for __aeabi_cdcmple
    cjson.o(i.cJSON_SetNumberHelper) refers to dfixi.o(.text) for __aeabi_d2iz
    cjson.o(i.cJSON_Version) refers to printfa.o(i.__0sprintf) for __2sprintf
    cjson.o(i.cJSON_Version) refers to cjson.o(.bss) for version
    cjson.o(i.cJSON_free) refers to cjson.o(.data) for global_hooks
    cjson.o(i.cJSON_malloc) refers to cjson.o(.data) for global_hooks
    cjson.o(i.cJSON_strdup) refers to strlen.o(.text) for strlen
    cjson.o(i.cJSON_strdup) refers to memcpya.o(.text) for __aeabi_memcpy
    cjson.o(i.case_insensitive_strcmp) refers to tolower.o(.text) for tolower
    cjson.o(i.create_reference) refers to cjson.o(i.cJSON_New_Item) for cJSON_New_Item
    cjson.o(i.create_reference) refers to memcpya.o(.text) for __aeabi_memcpy4
    cjson.o(i.ensure) refers to memcpya.o(.text) for __aeabi_memcpy
    cjson.o(i.get_decimal_point) refers to localeconv.o(.text) for localeconv
    cjson.o(i.get_object_item) refers to strcmp.o(.text) for strcmp
    cjson.o(i.get_object_item) refers to cjson.o(i.case_insensitive_strcmp) for case_insensitive_strcmp
    cjson.o(i.parse_array) refers to cjson.o(i.buffer_skip_whitespace) for buffer_skip_whitespace
    cjson.o(i.parse_array) refers to cjson.o(i.cJSON_New_Item) for cJSON_New_Item
    cjson.o(i.parse_array) refers to cjson.o(i.parse_value) for parse_value
    cjson.o(i.parse_array) refers to cjson.o(i.cJSON_Delete) for cJSON_Delete
    cjson.o(i.parse_number) refers to cjson.o(i.get_decimal_point) for get_decimal_point
    cjson.o(i.parse_number) refers to strtod.o(i.strtod) for strtod
    cjson.o(i.parse_number) refers to cdrcmple.o(.text) for __aeabi_cdrcmple
    cjson.o(i.parse_number) refers to cdcmple.o(.text) for __aeabi_cdcmple
    cjson.o(i.parse_number) refers to dfixi.o(.text) for __aeabi_d2iz
    cjson.o(i.parse_object) refers to cjson.o(i.buffer_skip_whitespace) for buffer_skip_whitespace
    cjson.o(i.parse_object) refers to cjson.o(i.cJSON_New_Item) for cJSON_New_Item
    cjson.o(i.parse_object) refers to cjson.o(i.parse_string) for parse_string
    cjson.o(i.parse_object) refers to cjson.o(i.parse_value) for parse_value
    cjson.o(i.parse_object) refers to cjson.o(i.cJSON_Delete) for cJSON_Delete
    cjson.o(i.parse_string) refers to cjson.o(i.utf16_literal_to_utf8) for utf16_literal_to_utf8
    cjson.o(i.parse_value) refers to strncmp.o(.text) for strncmp
    cjson.o(i.parse_value) refers to cjson.o(i.parse_string) for parse_string
    cjson.o(i.parse_value) refers to cjson.o(i.parse_number) for parse_number
    cjson.o(i.parse_value) refers to cjson.o(i.parse_array) for parse_array
    cjson.o(i.parse_value) refers to cjson.o(i.parse_object) for parse_object
    cjson.o(i.print) refers to memseta.o(.text) for __aeabi_memclr4
    cjson.o(i.print) refers to cjson.o(i.print_value) for print_value
    cjson.o(i.print) refers to cjson.o(i.update_offset) for update_offset
    cjson.o(i.print) refers to memcpya.o(.text) for __aeabi_memcpy
    cjson.o(i.print_array) refers to cjson.o(i.ensure) for ensure
    cjson.o(i.print_array) refers to cjson.o(i.print_value) for print_value
    cjson.o(i.print_array) refers to cjson.o(i.update_offset) for update_offset
    cjson.o(i.print_number) refers to scanf_fp.o(.text) for _scanf_real
    cjson.o(i.print_number) refers to cjson.o(i.get_decimal_point) for get_decimal_point
    cjson.o(i.print_number) refers to dmul.o(.text) for __aeabi_dmul
    cjson.o(i.print_number) refers to cdcmple.o(.text) for __aeabi_cdcmpeq
    cjson.o(i.print_number) refers to printfa.o(i.__0sprintf) for __2sprintf
    cjson.o(i.print_number) refers to __0sscanf.o(.text) for __0sscanf
    cjson.o(i.print_number) refers to cjson.o(i.ensure) for ensure
    cjson.o(i.print_object) refers to cjson.o(i.ensure) for ensure
    cjson.o(i.print_object) refers to cjson.o(i.print_string_ptr) for print_string_ptr
    cjson.o(i.print_object) refers to cjson.o(i.update_offset) for update_offset
    cjson.o(i.print_object) refers to cjson.o(i.print_value) for print_value
    cjson.o(i.print_string) refers to cjson.o(i.print_string_ptr) for print_string_ptr
    cjson.o(i.print_string_ptr) refers to cjson.o(i.ensure) for ensure
    cjson.o(i.print_string_ptr) refers to strcpy.o(.text) for strcpy
    cjson.o(i.print_string_ptr) refers to memcpya.o(.text) for __aeabi_memcpy
    cjson.o(i.print_string_ptr) refers to printfa.o(i.__0sprintf) for __2sprintf
    cjson.o(i.print_value) refers to cjson.o(i.ensure) for ensure
    cjson.o(i.print_value) refers to strcpy.o(.text) for strcpy
    cjson.o(i.print_value) refers to cjson.o(i.print_number) for print_number
    cjson.o(i.print_value) refers to strlen.o(.text) for strlen
    cjson.o(i.print_value) refers to memcpya.o(.text) for __aeabi_memcpy
    cjson.o(i.print_value) refers to cjson.o(i.print_string) for print_string
    cjson.o(i.print_value) refers to cjson.o(i.print_array) for print_array
    cjson.o(i.print_value) refers to cjson.o(i.print_object) for print_object
    cjson.o(i.replace_item_in_object) refers to cjson.o(i.cJSON_free) for cJSON_free
    cjson.o(i.replace_item_in_object) refers to cjson.o(i.cJSON_strdup) for cJSON_strdup
    cjson.o(i.replace_item_in_object) refers to cjson.o(i.get_object_item) for get_object_item
    cjson.o(i.replace_item_in_object) refers to cjson.o(i.cJSON_ReplaceItemViaPointer) for cJSON_ReplaceItemViaPointer
    cjson.o(i.replace_item_in_object) refers to cjson.o(.data) for global_hooks
    cjson.o(i.update_offset) refers to strlen.o(.text) for strlen
    cjson.o(i.utf16_literal_to_utf8) refers to cjson.o(i.parse_hex4) for parse_hex4
    cjson.o(.data) refers to mallocr.o(i.__malloc$realloc) for malloc
    cjson.o(.data) refers to mallocr.o(i.__free$realloc) for free
    cjson.o(.data) refers to mallocr.o(i.realloc) for realloc
    led.o(i.LED_Init) refers to stm32f10x_rcc.o(i.RCC_APB2PeriphClockCmd) for RCC_APB2PeriphClockCmd
    led.o(i.LED_Init) refers to stm32f10x_gpio.o(i.GPIO_Init) for GPIO_Init
    led.o(i.LED_Init) refers to stm32f10x_gpio.o(i.GPIO_SetBits) for GPIO_SetBits
    led.o(i.Led_Off) refers to stm32f10x_gpio.o(i.GPIO_SetBits) for GPIO_SetBits
    led.o(i.Led_On) refers to stm32f10x_gpio.o(i.GPIO_ResetBits) for GPIO_ResetBits
    led.o(i.Led_Toggle) refers to stm32f10x_gpio.o(i.GPIO_ReadOutputDataBit) for GPIO_ReadOutputDataBit
    led.o(i.Led_Toggle) refers to stm32f10x_gpio.o(i.GPIO_ResetBits) for GPIO_ResetBits
    led.o(i.Led_Toggle) refers to stm32f10x_gpio.o(i.GPIO_SetBits) for GPIO_SetBits
    millis.o(i.MILLIS_Init) refers to stm32f10x_rcc.o(i.RCC_APB2PeriphClockCmd) for RCC_APB2PeriphClockCmd
    millis.o(i.MILLIS_Init) refers to misc.o(i.NVIC_PriorityGroupConfig) for NVIC_PriorityGroupConfig
    millis.o(i.MILLIS_Init) refers to misc.o(i.NVIC_Init) for NVIC_Init
    millis.o(i.MILLIS_Init) refers to stm32f10x_exti.o(i.EXTI_ClearITPendingBit) for EXTI_ClearITPendingBit
    millis.o(i.MILLIS_Init) refers to stm32f10x_exti.o(i.EXTI_Init) for EXTI_Init
    millis.o(i.MILLIS_Init) refers to stm32f10x_rcc.o(i.RCC_APB1PeriphClockCmd) for RCC_APB1PeriphClockCmd
    millis.o(i.MILLIS_Init) refers to stm32f10x_pwr.o(i.PWR_BackupAccessCmd) for PWR_BackupAccessCmd
    millis.o(i.MILLIS_Init) refers to stm32f10x_pwr.o(i.PWR_GetFlagStatus) for PWR_GetFlagStatus
    millis.o(i.MILLIS_Init) refers to stm32f10x_pwr.o(i.PWR_ClearFlag) for PWR_ClearFlag
    millis.o(i.MILLIS_Init) refers to stm32f10x_bkp.o(i.BKP_DeInit) for BKP_DeInit
    millis.o(i.MILLIS_Init) refers to stm32f10x_rcc.o(i.RCC_LSICmd) for RCC_LSICmd
    millis.o(i.MILLIS_Init) refers to stm32f10x_rcc.o(i.RCC_GetFlagStatus) for RCC_GetFlagStatus
    millis.o(i.MILLIS_Init) refers to stm32f10x_rcc.o(i.RCC_RTCCLKConfig) for RCC_RTCCLKConfig
    millis.o(i.MILLIS_Init) refers to stm32f10x_rcc.o(i.RCC_RTCCLKCmd) for RCC_RTCCLKCmd
    millis.o(i.MILLIS_Init) refers to stm32f10x_rtc.o(i.RTC_WaitForSynchro) for RTC_WaitForSynchro
    millis.o(i.MILLIS_Init) refers to stm32f10x_rtc.o(i.RTC_WaitForLastTask) for RTC_WaitForLastTask
    millis.o(i.MILLIS_Init) refers to stm32f10x_rtc.o(i.RTC_ITConfig) for RTC_ITConfig
    millis.o(i.MILLIS_Init) refers to stm32f10x_rtc.o(i.RTC_SetPrescaler) for RTC_SetPrescaler
    millis.o(i.MILLIS_Init) refers to stm32f10x_rtc.o(i.RTC_SetCounter) for RTC_SetCounter
    millis.o(i.RTCAlarm_IRQHandler) refers to stm32f10x_rtc.o(i.RTC_GetITStatus) for RTC_GetITStatus
    millis.o(i.RTCAlarm_IRQHandler) refers to stm32f10x_exti.o(i.EXTI_ClearITPendingBit) for EXTI_ClearITPendingBit
    millis.o(i.RTCAlarm_IRQHandler) refers to stm32f10x_rtc.o(i.RTC_ClearITPendingBit) for RTC_ClearITPendingBit
    millis.o(i.RTC_IRQHandler) refers to stm32f10x_rtc.o(i.RTC_GetITStatus) for RTC_GetITStatus
    millis.o(i.RTC_IRQHandler) refers to stm32f10x_exti.o(i.EXTI_ClearITPendingBit) for EXTI_ClearITPendingBit
    millis.o(i.RTC_IRQHandler) refers to stm32f10x_rtc.o(i.RTC_ClearITPendingBit) for RTC_ClearITPendingBit
    millis.o(i.RTC_IRQHandler) refers to stm32f10x_rtc.o(i.RTC_WaitForLastTask) for RTC_WaitForLastTask
    usart3.o(i.UART3GetByte) refers to stm32f10x_usart.o(i.USART_GetFlagStatus) for USART_GetFlagStatus
    usart3.o(i.UART3GetByte) refers to stm32f10x_usart.o(i.USART_ReceiveData) for USART_ReceiveData
    usart3.o(i.UART3SendByte) refers to stm32f10x_usart.o(i.USART_SendData) for USART_SendData
    usart3.o(i.UART3SendByte) refers to stm32f10x_usart.o(i.USART_GetFlagStatus) for USART_GetFlagStatus
    usart3.o(i.UART3Test) refers to stm32f10x_usart.o(i.USART_SendData) for USART_SendData
    usart3.o(i.UART3Test) refers to usart3.o(i.UART3GetByte) for UART3GetByte
    usart3.o(i.USART3_Config) refers to stm32f10x_rcc.o(i.RCC_APB1PeriphClockCmd) for RCC_APB1PeriphClockCmd
    usart3.o(i.USART3_Config) refers to stm32f10x_rcc.o(i.RCC_APB2PeriphClockCmd) for RCC_APB2PeriphClockCmd
    usart3.o(i.USART3_Config) refers to misc.o(i.NVIC_PriorityGroupConfig) for NVIC_PriorityGroupConfig
    usart3.o(i.USART3_Config) refers to misc.o(i.NVIC_Init) for NVIC_Init
    usart3.o(i.USART3_Config) refers to stm32f10x_gpio.o(i.GPIO_Init) for GPIO_Init
    usart3.o(i.USART3_Config) refers to stm32f10x_usart.o(i.USART_Init) for USART_Init
    usart3.o(i.USART3_Config) refers to stm32f10x_usart.o(i.USART_ITConfig) for USART_ITConfig
    usart3.o(i.USART3_Config) refers to stm32f10x_usart.o(i.USART_Cmd) for USART_Cmd
    usart3.o(i.USART3_IRQHandler) refers to stm32f10x_usart.o(i.USART_GetITStatus) for USART_GetITStatus
    usart3.o(i.USART3_IRQHandler) refers to main.o(.data) for RxCounter
    usart3.o(i.USART3_IRQHandler) refers to main.o(.bss) for aRxBuffer
    usart3.o(i.fputc) refers to stm32f10x_usart.o(i.USART_SendData) for USART_SendData
    bsp_beep.o(i.Beep_GPIO_Config) refers to stm32f10x_rcc.o(i.RCC_APB2PeriphClockCmd) for RCC_APB2PeriphClockCmd
    bsp_beep.o(i.Beep_GPIO_Config) refers to stm32f10x_gpio.o(i.GPIO_Init) for GPIO_Init
    bsp_beep.o(i.Beep_Init) refers to bsp_beep.o(i.Beep_GPIO_Config) for Beep_GPIO_Config
    bsp_beep.o(i.Beep_Init) refers to stm32f10x_gpio.o(i.GPIO_ResetBits) for GPIO_ResetBits
    yun.o(i.alert) refers to printfa.o(i.__0printf) for __2printf
    yun.o(i.check_status) refers to printfa.o(i.__0printf) for __2printf
    yun.o(i.checkin) refers to printfa.o(i.__0printf) for __2printf
    yun.o(i.checkout) refers to printfa.o(i.__0printf) for __2printf
    yun.o(i.say) refers to printfa.o(i.__0printf) for __2printf
    yun.o(i.update1) refers to f2d.o(.text) for __aeabi_f2d
    yun.o(i.update1) refers to printfa.o(i.__0printf) for __2printf
    yun.o(i.update2) refers to f2d.o(.text) for __aeabi_f2d
    yun.o(i.update2) refers to printfa.o(i.__0printf) for __2printf
    yun.o(i.update3) refers to f2d.o(.text) for __aeabi_f2d
    yun.o(i.update3) refers to printfa.o(i.__0printf) for __2printf
    yun.o(i.update3) refers to yun.o(.conststring) for .conststring
    yun.o(i.update4) refers to f2d.o(.text) for __aeabi_f2d
    yun.o(i.update4) refers to printfa.o(i.__0printf) for __2printf
    yun.o(i.update4) refers to yun.o(.conststring) for .conststring
    yun.o(i.update_zhen) refers to printfa.o(i.__0printf) for __2printf
    stepmotor.o(i.Moto_Init) refers to stm32f10x_rcc.o(i.RCC_APB2PeriphClockCmd) for RCC_APB2PeriphClockCmd
    stepmotor.o(i.Moto_Init) refers to stm32f10x_gpio.o(i.GPIO_Init) for GPIO_Init
    stepmotor.o(i.Moto_Init) refers to stm32f10x_gpio.o(i.GPIO_ResetBits) for GPIO_ResetBits
    stepmotor.o(i.MotorStop) refers to stm32f10x_gpio.o(i.GPIO_ResetBits) for GPIO_ResetBits
    stepmotor.o(i.Motor_angle) refers to dflti.o(.text) for __aeabi_i2d
    stepmotor.o(i.Motor_angle) refers to ddiv.o(.text) for __aeabi_ddiv
    stepmotor.o(i.Motor_angle) refers to dfixi.o(.text) for __aeabi_d2iz
    stepmotor.o(i.Motor_angle) refers to stepmotor.o(i.Motorccw) for Motorccw
    stepmotor.o(i.Motor_angle) refers to yun.o(i.update_zhen) for update_zhen
    stepmotor.o(i.Motor_angle) refers to stepmotor.o(i.Motorcw) for Motorcw
    stepmotor.o(i.Motorccw) refers to stm32f10x_gpio.o(i.GPIO_SetBits) for GPIO_SetBits
    stepmotor.o(i.Motorccw) refers to stm32f10x_gpio.o(i.GPIO_ResetBits) for GPIO_ResetBits
    stepmotor.o(i.Motorccw) refers to stepmotor.o(i.Delay_xms) for Delay_xms
    stepmotor.o(i.Motorcw) refers to stm32f10x_gpio.o(i.GPIO_SetBits) for GPIO_SetBits
    stepmotor.o(i.Motorcw) refers to stm32f10x_gpio.o(i.GPIO_ResetBits) for GPIO_ResetBits
    stepmotor.o(i.Motorcw) refers to stepmotor.o(i.Delay_xms) for Delay_xms
    strtod.o(i.__softfp_strtod) refers (Special) to iusefp.o(.text) for __I$use$fp
    strtod.o(i.__softfp_strtod) refers to strtod.o(.text) for __strtod_int
    strtod.o(i.strtod) refers (Special) to iusefp.o(.text) for __I$use$fp
    strtod.o(i.strtod) refers to strtod.o(.text) for __strtod_int
    entry.o(.ARM.Collect$$$$00000000) refers (Special) to entry10a.o(.ARM.Collect$$$$0000000D) for __rt_final_cpp
    entry.o(.ARM.Collect$$$$00000000) refers (Special) to entry11a.o(.ARM.Collect$$$$0000000F) for __rt_final_exit
    entry.o(.ARM.Collect$$$$00000000) refers (Special) to entry7b.o(.ARM.Collect$$$$00000008) for _main_clock
    entry.o(.ARM.Collect$$$$00000000) refers (Special) to entry8b.o(.ARM.Collect$$$$0000000A) for _main_cpp_init
    entry.o(.ARM.Collect$$$$00000000) refers (Special) to entry9a.o(.ARM.Collect$$$$0000000B) for _main_init
    entry.o(.ARM.Collect$$$$00000000) refers (Special) to entry5.o(.ARM.Collect$$$$00000004) for _main_scatterload
    entry.o(.ARM.Collect$$$$00000000) refers (Special) to entry2.o(.ARM.Collect$$$$00000001) for _main_stk
    localeconv.o(.text) refers to ilconv.o(.constdata) for __internal_lconv
    printfb.o(i.__0fprintf$bare) refers to printfb.o(i._printf_core) for _printf_core
    printfb.o(i.__0fprintf$bare) refers to usart3.o(i.fputc) for fputc
    printfb.o(i.__0printf$bare) refers to printfb.o(i._printf_core) for _printf_core
    printfb.o(i.__0printf$bare) refers to usart3.o(i.fputc) for fputc
    printfb.o(i.__0printf$bare) refers to stdout.o(.data) for __stdout
    printfb.o(i.__0snprintf$bare) refers to printfb.o(i._printf_core) for _printf_core
    printfb.o(i.__0snprintf$bare) refers to printfb.o(i._snputc) for _snputc
    printfb.o(i.__0sprintf$bare) refers to printfb.o(i._printf_core) for _printf_core
    printfb.o(i.__0sprintf$bare) refers to printfb.o(i._sputc) for _sputc
    printfb.o(i.__0vfprintf$bare) refers to printfb.o(i._printf_core) for _printf_core
    printfb.o(i.__0vfprintf$bare) refers to usart3.o(i.fputc) for fputc
    printfb.o(i.__0vprintf$bare) refers to printfb.o(i._printf_core) for _printf_core
    printfb.o(i.__0vprintf$bare) refers to usart3.o(i.fputc) for fputc
    printfb.o(i.__0vprintf$bare) refers to stdout.o(.data) for __stdout
    printfb.o(i.__0vsnprintf$bare) refers to printfb.o(i._printf_core) for _printf_core
    printfb.o(i.__0vsnprintf$bare) refers to printfb.o(i._snputc) for _snputc
    printfb.o(i.__0vsprintf$bare) refers to printfb.o(i._printf_core) for _printf_core
    printfb.o(i.__0vsprintf$bare) refers to printfb.o(i._sputc) for _sputc
    printf0.o(i.__0fprintf$0) refers to printf0.o(i._printf_core) for _printf_core
    printf0.o(i.__0fprintf$0) refers to usart3.o(i.fputc) for fputc
    printf0.o(i.__0printf$0) refers to printf0.o(i._printf_core) for _printf_core
    printf0.o(i.__0printf$0) refers to usart3.o(i.fputc) for fputc
    printf0.o(i.__0printf$0) refers to stdout.o(.data) for __stdout
    printf0.o(i.__0snprintf$0) refers to printf0.o(i._printf_core) for _printf_core
    printf0.o(i.__0snprintf$0) refers to printf0.o(i._snputc) for _snputc
    printf0.o(i.__0sprintf$0) refers to printf0.o(i._printf_core) for _printf_core
    printf0.o(i.__0sprintf$0) refers to printf0.o(i._sputc) for _sputc
    printf0.o(i.__0vfprintf$0) refers to printf0.o(i._printf_core) for _printf_core
    printf0.o(i.__0vfprintf$0) refers to usart3.o(i.fputc) for fputc
    printf0.o(i.__0vprintf$0) refers to printf0.o(i._printf_core) for _printf_core
    printf0.o(i.__0vprintf$0) refers to usart3.o(i.fputc) for fputc
    printf0.o(i.__0vprintf$0) refers to stdout.o(.data) for __stdout
    printf0.o(i.__0vsnprintf$0) refers to printf0.o(i._printf_core) for _printf_core
    printf0.o(i.__0vsnprintf$0) refers to printf0.o(i._snputc) for _snputc
    printf0.o(i.__0vsprintf$0) refers to printf0.o(i._printf_core) for _printf_core
    printf0.o(i.__0vsprintf$0) refers to printf0.o(i._sputc) for _sputc
    printf1.o(i.__0fprintf$1) refers to printf1.o(i._printf_core) for _printf_core
    printf1.o(i.__0fprintf$1) refers to usart3.o(i.fputc) for fputc
    printf1.o(i.__0printf$1) refers to printf1.o(i._printf_core) for _printf_core
    printf1.o(i.__0printf$1) refers to usart3.o(i.fputc) for fputc
    printf1.o(i.__0printf$1) refers to stdout.o(.data) for __stdout
    printf1.o(i.__0snprintf$1) refers to printf1.o(i._printf_core) for _printf_core
    printf1.o(i.__0snprintf$1) refers to printf1.o(i._snputc) for _snputc
    printf1.o(i.__0sprintf$1) refers to printf1.o(i._printf_core) for _printf_core
    printf1.o(i.__0sprintf$1) refers to printf1.o(i._sputc) for _sputc
    printf1.o(i.__0vfprintf$1) refers to printf1.o(i._printf_core) for _printf_core
    printf1.o(i.__0vfprintf$1) refers to usart3.o(i.fputc) for fputc
    printf1.o(i.__0vprintf$1) refers to printf1.o(i._printf_core) for _printf_core
    printf1.o(i.__0vprintf$1) refers to usart3.o(i.fputc) for fputc
    printf1.o(i.__0vprintf$1) refers to stdout.o(.data) for __stdout
    printf1.o(i.__0vsnprintf$1) refers to printf1.o(i._printf_core) for _printf_core
    printf1.o(i.__0vsnprintf$1) refers to printf1.o(i._snputc) for _snputc
    printf1.o(i.__0vsprintf$1) refers to printf1.o(i._printf_core) for _printf_core
    printf1.o(i.__0vsprintf$1) refers to printf1.o(i._sputc) for _sputc
    printf1.o(i._printf_core) refers to uidiv.o(.text) for __aeabi_uidivmod
    printf2.o(i.__0fprintf$2) refers to printf2.o(i._printf_core) for _printf_core
    printf2.o(i.__0fprintf$2) refers to usart3.o(i.fputc) for fputc
    printf2.o(i.__0printf$2) refers to printf2.o(i._printf_core) for _printf_core
    printf2.o(i.__0printf$2) refers to usart3.o(i.fputc) for fputc
    printf2.o(i.__0printf$2) refers to stdout.o(.data) for __stdout
    printf2.o(i.__0snprintf$2) refers to printf2.o(i._printf_core) for _printf_core
    printf2.o(i.__0snprintf$2) refers to printf2.o(i._snputc) for _snputc
    printf2.o(i.__0sprintf$2) refers to printf2.o(i._printf_core) for _printf_core
    printf2.o(i.__0sprintf$2) refers to printf2.o(i._sputc) for _sputc
    printf2.o(i.__0vfprintf$2) refers to printf2.o(i._printf_core) for _printf_core
    printf2.o(i.__0vfprintf$2) refers to usart3.o(i.fputc) for fputc
    printf2.o(i.__0vprintf$2) refers to printf2.o(i._printf_core) for _printf_core
    printf2.o(i.__0vprintf$2) refers to usart3.o(i.fputc) for fputc
    printf2.o(i.__0vprintf$2) refers to stdout.o(.data) for __stdout
    printf2.o(i.__0vsnprintf$2) refers to printf2.o(i._printf_core) for _printf_core
    printf2.o(i.__0vsnprintf$2) refers to printf2.o(i._snputc) for _snputc
    printf2.o(i.__0vsprintf$2) refers to printf2.o(i._printf_core) for _printf_core
    printf2.o(i.__0vsprintf$2) refers to printf2.o(i._sputc) for _sputc
    printf3.o(i.__0fprintf$3) refers to printf3.o(i._printf_core) for _printf_core
    printf3.o(i.__0fprintf$3) refers to usart3.o(i.fputc) for fputc
    printf3.o(i.__0printf$3) refers to printf3.o(i._printf_core) for _printf_core
    printf3.o(i.__0printf$3) refers to usart3.o(i.fputc) for fputc
    printf3.o(i.__0printf$3) refers to stdout.o(.data) for __stdout
    printf3.o(i.__0snprintf$3) refers to printf3.o(i._printf_core) for _printf_core
    printf3.o(i.__0snprintf$3) refers to printf3.o(i._snputc) for _snputc
    printf3.o(i.__0sprintf$3) refers to printf3.o(i._printf_core) for _printf_core
    printf3.o(i.__0sprintf$3) refers to printf3.o(i._sputc) for _sputc
    printf3.o(i.__0vfprintf$3) refers to printf3.o(i._printf_core) for _printf_core
    printf3.o(i.__0vfprintf$3) refers to usart3.o(i.fputc) for fputc
    printf3.o(i.__0vprintf$3) refers to printf3.o(i._printf_core) for _printf_core
    printf3.o(i.__0vprintf$3) refers to usart3.o(i.fputc) for fputc
    printf3.o(i.__0vprintf$3) refers to stdout.o(.data) for __stdout
    printf3.o(i.__0vsnprintf$3) refers to printf3.o(i._printf_core) for _printf_core
    printf3.o(i.__0vsnprintf$3) refers to printf3.o(i._snputc) for _snputc
    printf3.o(i.__0vsprintf$3) refers to printf3.o(i._printf_core) for _printf_core
    printf3.o(i.__0vsprintf$3) refers to printf3.o(i._sputc) for _sputc
    printf3.o(i._printf_core) refers to uidiv.o(.text) for __aeabi_uidivmod
    printf4.o(i.__0fprintf$4) refers to printf4.o(i._printf_core) for _printf_core
    printf4.o(i.__0fprintf$4) refers to usart3.o(i.fputc) for fputc
    printf4.o(i.__0printf$4) refers to printf4.o(i._printf_core) for _printf_core
    printf4.o(i.__0printf$4) refers to usart3.o(i.fputc) for fputc
    printf4.o(i.__0printf$4) refers to stdout.o(.data) for __stdout
    printf4.o(i.__0snprintf$4) refers to printf4.o(i._printf_core) for _printf_core
    printf4.o(i.__0snprintf$4) refers to printf4.o(i._snputc) for _snputc
    printf4.o(i.__0sprintf$4) refers to printf4.o(i._printf_core) for _printf_core
    printf4.o(i.__0sprintf$4) refers to printf4.o(i._sputc) for _sputc
    printf4.o(i.__0vfprintf$4) refers to printf4.o(i._printf_core) for _printf_core
    printf4.o(i.__0vfprintf$4) refers to usart3.o(i.fputc) for fputc
    printf4.o(i.__0vprintf$4) refers to printf4.o(i._printf_core) for _printf_core
    printf4.o(i.__0vprintf$4) refers to usart3.o(i.fputc) for fputc
    printf4.o(i.__0vprintf$4) refers to stdout.o(.data) for __stdout
    printf4.o(i.__0vsnprintf$4) refers to printf4.o(i._printf_core) for _printf_core
    printf4.o(i.__0vsnprintf$4) refers to printf4.o(i._snputc) for _snputc
    printf4.o(i.__0vsprintf$4) refers to printf4.o(i._printf_core) for _printf_core
    printf4.o(i.__0vsprintf$4) refers to printf4.o(i._sputc) for _sputc
    printf4.o(i._printf_core) refers to uldiv.o(.text) for __aeabi_uldivmod
    printf5.o(i.__0fprintf$5) refers to printf5.o(i._printf_core) for _printf_core
    printf5.o(i.__0fprintf$5) refers to usart3.o(i.fputc) for fputc
    printf5.o(i.__0printf$5) refers to printf5.o(i._printf_core) for _printf_core
    printf5.o(i.__0printf$5) refers to usart3.o(i.fputc) for fputc
    printf5.o(i.__0printf$5) refers to stdout.o(.data) for __stdout
    printf5.o(i.__0snprintf$5) refers to printf5.o(i._printf_core) for _printf_core
    printf5.o(i.__0snprintf$5) refers to printf5.o(i._snputc) for _snputc
    printf5.o(i.__0sprintf$5) refers to printf5.o(i._printf_core) for _printf_core
    printf5.o(i.__0sprintf$5) refers to printf5.o(i._sputc) for _sputc
    printf5.o(i.__0vfprintf$5) refers to printf5.o(i._printf_core) for _printf_core
    printf5.o(i.__0vfprintf$5) refers to usart3.o(i.fputc) for fputc
    printf5.o(i.__0vprintf$5) refers to printf5.o(i._printf_core) for _printf_core
    printf5.o(i.__0vprintf$5) refers to usart3.o(i.fputc) for fputc
    printf5.o(i.__0vprintf$5) refers to stdout.o(.data) for __stdout
    printf5.o(i.__0vsnprintf$5) refers to printf5.o(i._printf_core) for _printf_core
    printf5.o(i.__0vsnprintf$5) refers to printf5.o(i._snputc) for _snputc
    printf5.o(i.__0vsprintf$5) refers to printf5.o(i._printf_core) for _printf_core
    printf5.o(i.__0vsprintf$5) refers to printf5.o(i._sputc) for _sputc
    printf5.o(i._printf_core) refers to uldiv.o(.text) for __aeabi_uldivmod
    printf6.o(i.__0fprintf$6) refers to printf6.o(i._printf_core) for _printf_core
    printf6.o(i.__0fprintf$6) refers to usart3.o(i.fputc) for fputc
    printf6.o(i.__0printf$6) refers to printf6.o(i._printf_core) for _printf_core
    printf6.o(i.__0printf$6) refers to usart3.o(i.fputc) for fputc
    printf6.o(i.__0printf$6) refers to stdout.o(.data) for __stdout
    printf6.o(i.__0snprintf$6) refers to printf6.o(i._printf_core) for _printf_core
    printf6.o(i.__0snprintf$6) refers to printf6.o(i._snputc) for _snputc
    printf6.o(i.__0sprintf$6) refers to printf6.o(i._printf_core) for _printf_core
    printf6.o(i.__0sprintf$6) refers to printf6.o(i._sputc) for _sputc
    printf6.o(i.__0vfprintf$6) refers to printf6.o(i._printf_core) for _printf_core
    printf6.o(i.__0vfprintf$6) refers to usart3.o(i.fputc) for fputc
    printf6.o(i.__0vprintf$6) refers to printf6.o(i._printf_core) for _printf_core
    printf6.o(i.__0vprintf$6) refers to usart3.o(i.fputc) for fputc
    printf6.o(i.__0vprintf$6) refers to stdout.o(.data) for __stdout
    printf6.o(i.__0vsnprintf$6) refers to printf6.o(i._printf_core) for _printf_core
    printf6.o(i.__0vsnprintf$6) refers to printf6.o(i._snputc) for _snputc
    printf6.o(i.__0vsprintf$6) refers to printf6.o(i._printf_core) for _printf_core
    printf6.o(i.__0vsprintf$6) refers to printf6.o(i._sputc) for _sputc
    printf6.o(i._printf_core) refers to printf6.o(i._printf_pre_padding) for _printf_pre_padding
    printf6.o(i._printf_core) refers to uidiv.o(.text) for __aeabi_uidivmod
    printf6.o(i._printf_core) refers to printf6.o(i._printf_post_padding) for _printf_post_padding
    printf7.o(i.__0fprintf$7) refers to printf7.o(i._printf_core) for _printf_core
    printf7.o(i.__0fprintf$7) refers to usart3.o(i.fputc) for fputc
    printf7.o(i.__0printf$7) refers to printf7.o(i._printf_core) for _printf_core
    printf7.o(i.__0printf$7) refers to usart3.o(i.fputc) for fputc
    printf7.o(i.__0printf$7) refers to stdout.o(.data) for __stdout
    printf7.o(i.__0snprintf$7) refers to printf7.o(i._printf_core) for _printf_core
    printf7.o(i.__0snprintf$7) refers to printf7.o(i._snputc) for _snputc
    printf7.o(i.__0sprintf$7) refers to printf7.o(i._printf_core) for _printf_core
    printf7.o(i.__0sprintf$7) refers to printf7.o(i._sputc) for _sputc
    printf7.o(i.__0vfprintf$7) refers to printf7.o(i._printf_core) for _printf_core
    printf7.o(i.__0vfprintf$7) refers to usart3.o(i.fputc) for fputc
    printf7.o(i.__0vprintf$7) refers to printf7.o(i._printf_core) for _printf_core
    printf7.o(i.__0vprintf$7) refers to usart3.o(i.fputc) for fputc
    printf7.o(i.__0vprintf$7) refers to stdout.o(.data) for __stdout
    printf7.o(i.__0vsnprintf$7) refers to printf7.o(i._printf_core) for _printf_core
    printf7.o(i.__0vsnprintf$7) refers to printf7.o(i._snputc) for _snputc
    printf7.o(i.__0vsprintf$7) refers to printf7.o(i._printf_core) for _printf_core
    printf7.o(i.__0vsprintf$7) refers to printf7.o(i._sputc) for _sputc
    printf7.o(i._printf_core) refers to printf7.o(i._printf_pre_padding) for _printf_pre_padding
    printf7.o(i._printf_core) refers to uldiv.o(.text) for __aeabi_uldivmod
    printf7.o(i._printf_core) refers to printf7.o(i._printf_post_padding) for _printf_post_padding
    printf8.o(i.__0fprintf$8) refers to printf8.o(i._printf_core) for _printf_core
    printf8.o(i.__0fprintf$8) refers to usart3.o(i.fputc) for fputc
    printf8.o(i.__0printf$8) refers to printf8.o(i._printf_core) for _printf_core
    printf8.o(i.__0printf$8) refers to usart3.o(i.fputc) for fputc
    printf8.o(i.__0printf$8) refers to stdout.o(.data) for __stdout
    printf8.o(i.__0snprintf$8) refers to printf8.o(i._printf_core) for _printf_core
    printf8.o(i.__0snprintf$8) refers to printf8.o(i._snputc) for _snputc
    printf8.o(i.__0sprintf$8) refers to printf8.o(i._printf_core) for _printf_core
    printf8.o(i.__0sprintf$8) refers to printf8.o(i._sputc) for _sputc
    printf8.o(i.__0vfprintf$8) refers to printf8.o(i._printf_core) for _printf_core
    printf8.o(i.__0vfprintf$8) refers to usart3.o(i.fputc) for fputc
    printf8.o(i.__0vprintf$8) refers to printf8.o(i._printf_core) for _printf_core
    printf8.o(i.__0vprintf$8) refers to usart3.o(i.fputc) for fputc
    printf8.o(i.__0vprintf$8) refers to stdout.o(.data) for __stdout
    printf8.o(i.__0vsnprintf$8) refers to printf8.o(i._printf_core) for _printf_core
    printf8.o(i.__0vsnprintf$8) refers to printf8.o(i._snputc) for _snputc
    printf8.o(i.__0vsprintf$8) refers to printf8.o(i._printf_core) for _printf_core
    printf8.o(i.__0vsprintf$8) refers to printf8.o(i._sputc) for _sputc
    printf8.o(i._printf_core) refers to printf8.o(i._printf_pre_padding) for _printf_pre_padding
    printf8.o(i._printf_core) refers to uldiv.o(.text) for __aeabi_uldivmod
    printf8.o(i._printf_core) refers to printf8.o(i._printf_post_padding) for _printf_post_padding
    printfa.o(i.__0fprintf) refers (Special) to iusefp.o(.text) for __I$use$fp
    printfa.o(i.__0fprintf) refers to printfa.o(i._printf_core) for _printf_core
    printfa.o(i.__0fprintf) refers to usart3.o(i.fputc) for fputc
    printfa.o(i.__0printf) refers (Special) to iusefp.o(.text) for __I$use$fp
    printfa.o(i.__0printf) refers to printfa.o(i._printf_core) for _printf_core
    printfa.o(i.__0printf) refers to usart3.o(i.fputc) for fputc
    printfa.o(i.__0printf) refers to stdout.o(.data) for __stdout
    printfa.o(i.__0snprintf) refers (Special) to iusefp.o(.text) for __I$use$fp
    printfa.o(i.__0snprintf) refers to printfa.o(i._printf_core) for _printf_core
    printfa.o(i.__0snprintf) refers to printfa.o(i._snputc) for _snputc
    printfa.o(i.__0sprintf) refers (Special) to iusefp.o(.text) for __I$use$fp
    printfa.o(i.__0sprintf) refers to printfa.o(i._printf_core) for _printf_core
    printfa.o(i.__0sprintf) refers to printfa.o(i._sputc) for _sputc
    printfa.o(i.__0vfprintf) refers (Special) to iusefp.o(.text) for __I$use$fp
    printfa.o(i.__0vfprintf) refers to printfa.o(i._printf_core) for _printf_core
    printfa.o(i.__0vfprintf) refers to usart3.o(i.fputc) for fputc
    printfa.o(i.__0vprintf) refers (Special) to iusefp.o(.text) for __I$use$fp
    printfa.o(i.__0vprintf) refers to printfa.o(i._printf_core) for _printf_core
    printfa.o(i.__0vprintf) refers to usart3.o(i.fputc) for fputc
    printfa.o(i.__0vprintf) refers to stdout.o(.data) for __stdout
    printfa.o(i.__0vsnprintf) refers (Special) to iusefp.o(.text) for __I$use$fp
    printfa.o(i.__0vsnprintf) refers to printfa.o(i._printf_core) for _printf_core
    printfa.o(i.__0vsnprintf) refers to printfa.o(i._snputc) for _snputc
    printfa.o(i.__0vsprintf) refers (Special) to iusefp.o(.text) for __I$use$fp
    printfa.o(i.__0vsprintf) refers to printfa.o(i._printf_core) for _printf_core
    printfa.o(i.__0vsprintf) refers to printfa.o(i._sputc) for _sputc
    printfa.o(i._fp_digits) refers (Special) to iusefp.o(.text) for __I$use$fp
    printfa.o(i._fp_digits) refers to dmul.o(.text) for __aeabi_dmul
    printfa.o(i._fp_digits) refers to ddiv.o(.text) for __aeabi_ddiv
    printfa.o(i._fp_digits) refers to cdrcmple.o(.text) for __aeabi_cdrcmple
    printfa.o(i._fp_digits) refers to dadd.o(.text) for __aeabi_dadd
    printfa.o(i._fp_digits) refers to dfixul.o(.text) for __aeabi_d2ulz
    printfa.o(i._fp_digits) refers to uldiv.o(.text) for __aeabi_uldivmod
    printfa.o(i._printf_core) refers (Special) to iusefp.o(.text) for __I$use$fp
    printfa.o(i._printf_core) refers to printfa.o(i._printf_pre_padding) for _printf_pre_padding
    printfa.o(i._printf_core) refers to uldiv.o(.text) for __aeabi_uldivmod
    printfa.o(i._printf_core) refers to printfa.o(i._printf_post_padding) for _printf_post_padding
    printfa.o(i._printf_core) refers to printfa.o(i._fp_digits) for _fp_digits
    printfa.o(i._printf_core) refers to uidiv.o(.text) for __aeabi_uidivmod
    printfa.o(i._printf_post_padding) refers (Special) to iusefp.o(.text) for __I$use$fp
    printfa.o(i._printf_pre_padding) refers (Special) to iusefp.o(.text) for __I$use$fp
    printfa.o(i._snputc) refers (Special) to iusefp.o(.text) for __I$use$fp
    printfa.o(i._sputc) refers (Special) to iusefp.o(.text) for __I$use$fp
    malloc.o(i.free) refers to mvars.o(.data) for __microlib_freelist
    malloc.o(i.malloc) refers to mvars.o(.data) for __microlib_freelist_initialised
    malloc.o(i.malloc) refers to mvars.o(.data) for __microlib_freelist
    malloc.o(i.malloc) refers to startup_stm32f10x_md.o(HEAP) for __heap_base
    mallocr.o(i.__free$realloc) refers to mvars.o(.data) for __microlib_freelist
    mallocr.o(i.__malloc$realloc) refers to mallocr.o(i.internal_alloc) for internal_alloc
    mallocr.o(i.__malloc$realloc) refers to mvars.o(.data) for __microlib_freelist_initialised
    mallocr.o(i.__malloc$realloc) refers to startup_stm32f10x_md.o(HEAP) for __heap_base
    mallocr.o(i.__malloc$realloc) refers to mvars.o(.data) for __microlib_freelist
    mallocr.o(i.internal_alloc) refers to memcpya.o(.text) for __aeabi_memcpy
    mallocr.o(i.internal_alloc) refers to mvars.o(.data) for __microlib_freelist
    mallocr.o(i.realloc) refers to mallocr.o(i.__free$realloc) for free
    mallocr.o(i.realloc) refers to mallocr.o(i.internal_alloc) for internal_alloc
    mallocr.o(i.realloc) refers to mallocr.o(i.__malloc$realloc) for malloc
    mallocr.o(i.realloc) refers to mvars.o(.data) for __microlib_freelist
    malloca.o(i.__aligned_malloc) refers to mvars.o(.data) for __microlib_freelist_initialised
    malloca.o(i.__aligned_malloc) refers to mvars.o(.data) for __microlib_freelist
    malloca.o(i.__aligned_malloc) refers to startup_stm32f10x_md.o(HEAP) for __heap_base
    malloca.o(i.__free$memalign) refers to mvars.o(.data) for __microlib_freelist
    malloca.o(i.__malloc$memalign) refers to malloca.o(i.__aligned_malloc) for __aligned_malloc
    mallocra.o(i.__aligned_malloc$realloc) refers to mallocra.o(i.internal_alloc) for internal_alloc
    mallocra.o(i.__aligned_malloc$realloc) refers to mvars.o(.data) for __microlib_freelist_initialised
    mallocra.o(i.__aligned_malloc$realloc) refers to startup_stm32f10x_md.o(HEAP) for __heap_base
    mallocra.o(i.__aligned_malloc$realloc) refers to mvars.o(.data) for __microlib_freelist
    mallocra.o(i.__free$realloc$memalign) refers to mvars.o(.data) for __microlib_freelist
    mallocra.o(i.__malloc$realloc$memalign) refers to mallocra.o(i.__aligned_malloc$realloc) for __aligned_malloc$realloc
    mallocra.o(i.__realloc$memalign) refers to mallocra.o(i.__free$realloc$memalign) for __free$realloc$memalign
    mallocra.o(i.__realloc$memalign) refers to mallocra.o(i.internal_alloc) for internal_alloc
    mallocra.o(i.__realloc$memalign) refers to mallocra.o(i.__malloc$realloc$memalign) for __malloc$realloc$memalign
    mallocra.o(i.__realloc$memalign) refers to mvars.o(.data) for __microlib_freelist
    mallocra.o(i.internal_alloc) refers to memcpya.o(.text) for __aeabi_memcpy
    mallocra.o(i.internal_alloc) refers to mvars.o(.data) for __microlib_freelist
    __0sscanf.o(.text) refers to scanf_char.o(.text) for __vfscanf_char
    __0sscanf.o(.text) refers to _sgetc.o(.text) for _sgetc
    scanf_fp.o(.text) refers (Special) to iusefp.o(.text) for __I$use$fp
    scanf_fp.o(.text) refers to dfltul.o(.text) for __aeabi_ul2d
    scanf_fp.o(.text) refers to dmul.o(.text) for __aeabi_dmul
    scanf_fp.o(.text) refers to ddiv.o(.text) for __aeabi_ddiv
    scanf_fp.o(.text) refers to scanf_fp.o(i._is_digit) for _is_digit
    scanf_fp.o(.text) refers to d2f.o(.text) for __aeabi_d2f
    fadd.o(.text) refers (Special) to iusefp.o(.text) for __I$use$fp
    fadd.o(.text) refers to fepilogue.o(.text) for _float_epilogue
    dadd.o(.text) refers (Special) to iusefp.o(.text) for __I$use$fp
    dadd.o(.text) refers to llshl.o(.text) for __aeabi_llsl
    dadd.o(.text) refers to llsshr.o(.text) for __aeabi_lasr
    dadd.o(.text) refers to depilogue.o(.text) for _double_epilogue
    dmul.o(.text) refers (Special) to iusefp.o(.text) for __I$use$fp
    dmul.o(.text) refers to depilogue.o(.text) for _double_epilogue
    ddiv.o(.text) refers (Special) to iusefp.o(.text) for __I$use$fp
    ddiv.o(.text) refers to depilogue.o(.text) for _double_round
    fflti.o(.text) refers (Special) to iusefp.o(.text) for __I$use$fp
    fflti.o(.text) refers to fepilogue.o(.text) for _float_epilogue
    ffltui.o(.text) refers (Special) to iusefp.o(.text) for __I$use$fp
    ffltui.o(.text) refers to fepilogue.o(.text) for _float_epilogue
    dflti.o(.text) refers (Special) to iusefp.o(.text) for __I$use$fp
    dflti.o(.text) refers to depilogue.o(.text) for _double_epilogue
    dfixi.o(.text) refers (Special) to iusefp.o(.text) for __I$use$fp
    dfixi.o(.text) refers to llushr.o(.text) for __aeabi_llsr
    f2d.o(.text) refers (Special) to iusefp.o(.text) for __I$use$fp
    cdcmple.o(.text) refers (Special) to iusefp.o(.text) for __I$use$fp
    cdrcmple.o(.text) refers (Special) to iusefp.o(.text) for __I$use$fp
    d2f.o(.text) refers (Special) to iusefp.o(.text) for __I$use$fp
    d2f.o(.text) refers to fepilogue.o(.text) for _float_round
    entry2.o(.ARM.Collect$$$$00000001) refers to entry2.o(.ARM.Collect$$$$00002712) for __lit__00000000
    entry2.o(.ARM.Collect$$$$00002712) refers to startup_stm32f10x_md.o(STACK) for __initial_sp
    entry2.o(__vectab_stack_and_reset_area) refers to startup_stm32f10x_md.o(STACK) for __initial_sp
    entry2.o(__vectab_stack_and_reset_area) refers to entry.o(.ARM.Collect$$$$00000000) for __main
    entry5.o(.ARM.Collect$$$$00000004) refers to init.o(.text) for __scatterload
    entry9a.o(.ARM.Collect$$$$0000000B) refers to main.o(i.main) for main
    entry9b.o(.ARM.Collect$$$$0000000C) refers to main.o(i.main) for main
    uldiv.o(.text) refers to llushr.o(.text) for __aeabi_llsr
    uldiv.o(.text) refers to llshl.o(.text) for __aeabi_llsl
    ilconv.o(.constdata) refers to ilconv.o(.conststring) for .conststring
    scanf_char.o(.text) refers to _scanf.o(.text) for __vfscanf
    scanf_char.o(.text) refers to isspace_c.o(.text) for isspace
    strtod.o(.text) refers to scanf_fp.o(.text) for _scanf_real
    strtod.o(.text) refers to _sgetc.o(.text) for _sgetc
    strtod.o(.text) refers to isspace_c.o(.text) for isspace
    depilogue.o(.text) refers to llshl.o(.text) for __aeabi_llsl
    depilogue.o(.text) refers to llushr.o(.text) for __aeabi_llsr
    dfltul.o(.text) refers to depilogue.o(.text) for _double_epilogue
    dfixul.o(.text) refers to llushr.o(.text) for __aeabi_llsr
    dfixul.o(.text) refers to llshl.o(.text) for __aeabi_llsl
    init.o(.text) refers to entry5.o(.ARM.Collect$$$$00000004) for __main_after_scatterload
    isspace_c.o(.text) refers to ctype_c.o(.text) for __ctype_lookup
    _scanf.o(.text) refers (Weak) to scanf_fp.o(.text) for _scanf_real
    ctype_c.o(.text) refers to ctype_c.o(.constdata) for .constdata
    scanf_fp.o(i._is_digit) refers (Special) to iusefp.o(.text) for __I$use$fp


==============================================================================

Removing Unused input sections from the image.

    Removing core_cm3.o(.emb_text), (32 bytes).
    Removing system_stm32f10x.o(i.SystemCoreClockUpdate), (164 bytes).
    Removing misc.o(i.NVIC_SetVectorTable), (20 bytes).
    Removing misc.o(i.NVIC_SystemLPConfig), (32 bytes).
    Removing misc.o(i.SysTick_CLKSourceConfig), (40 bytes).
    Removing stm32f10x_adc.o(i.ADC_AnalogWatchdogCmd), (20 bytes).
    Removing stm32f10x_adc.o(i.ADC_AnalogWatchdogSingleChannelConfig), (16 bytes).
    Removing stm32f10x_adc.o(i.ADC_AnalogWatchdogThresholdsConfig), (6 bytes).
    Removing stm32f10x_adc.o(i.ADC_AutoInjectedConvCmd), (22 bytes).
    Removing stm32f10x_adc.o(i.ADC_ClearFlag), (6 bytes).
    Removing stm32f10x_adc.o(i.ADC_ClearITPendingBit), (10 bytes).
    Removing stm32f10x_adc.o(i.ADC_Cmd), (22 bytes).
    Removing stm32f10x_adc.o(i.ADC_DMACmd), (22 bytes).
    Removing stm32f10x_adc.o(i.ADC_DeInit), (92 bytes).
    Removing stm32f10x_adc.o(i.ADC_DiscModeChannelCountConfig), (24 bytes).
    Removing stm32f10x_adc.o(i.ADC_DiscModeCmd), (22 bytes).
    Removing stm32f10x_adc.o(i.ADC_ExternalTrigConvCmd), (22 bytes).
    Removing stm32f10x_adc.o(i.ADC_ExternalTrigInjectedConvCmd), (22 bytes).
    Removing stm32f10x_adc.o(i.ADC_ExternalTrigInjectedConvConfig), (16 bytes).
    Removing stm32f10x_adc.o(i.ADC_GetCalibrationStatus), (20 bytes).
    Removing stm32f10x_adc.o(i.ADC_GetConversionValue), (8 bytes).
    Removing stm32f10x_adc.o(i.ADC_GetDualModeConversionValue), (12 bytes).
    Removing stm32f10x_adc.o(i.ADC_GetFlagStatus), (18 bytes).
    Removing stm32f10x_adc.o(i.ADC_GetITStatus), (36 bytes).
    Removing stm32f10x_adc.o(i.ADC_GetInjectedConversionValue), (28 bytes).
    Removing stm32f10x_adc.o(i.ADC_GetResetCalibrationStatus), (20 bytes).
    Removing stm32f10x_adc.o(i.ADC_GetSoftwareStartConvStatus), (20 bytes).
    Removing stm32f10x_adc.o(i.ADC_GetSoftwareStartInjectedConvCmdStatus), (20 bytes).
    Removing stm32f10x_adc.o(i.ADC_ITConfig), (24 bytes).
    Removing stm32f10x_adc.o(i.ADC_Init), (80 bytes).
    Removing stm32f10x_adc.o(i.ADC_InjectedChannelConfig), (130 bytes).
    Removing stm32f10x_adc.o(i.ADC_InjectedDiscModeCmd), (22 bytes).
    Removing stm32f10x_adc.o(i.ADC_InjectedSequencerLengthConfig), (24 bytes).
    Removing stm32f10x_adc.o(i.ADC_RegularChannelConfig), (184 bytes).
    Removing stm32f10x_adc.o(i.ADC_ResetCalibration), (10 bytes).
    Removing stm32f10x_adc.o(i.ADC_SetInjectedOffset), (20 bytes).
    Removing stm32f10x_adc.o(i.ADC_SoftwareStartConvCmd), (22 bytes).
    Removing stm32f10x_adc.o(i.ADC_SoftwareStartInjectedConvCmd), (22 bytes).
    Removing stm32f10x_adc.o(i.ADC_StartCalibration), (10 bytes).
    Removing stm32f10x_adc.o(i.ADC_StructInit), (18 bytes).
    Removing stm32f10x_adc.o(i.ADC_TempSensorVrefintCmd), (36 bytes).
    Removing stm32f10x_bkp.o(i.BKP_ClearFlag), (20 bytes).
    Removing stm32f10x_bkp.o(i.BKP_ClearITPendingBit), (20 bytes).
    Removing stm32f10x_bkp.o(i.BKP_GetFlagStatus), (12 bytes).
    Removing stm32f10x_bkp.o(i.BKP_GetITStatus), (12 bytes).
    Removing stm32f10x_bkp.o(i.BKP_ITConfig), (12 bytes).
    Removing stm32f10x_bkp.o(i.BKP_RTCOutputConfig), (28 bytes).
    Removing stm32f10x_bkp.o(i.BKP_ReadBackupRegister), (28 bytes).
    Removing stm32f10x_bkp.o(i.BKP_SetRTCCalibrationValue), (28 bytes).
    Removing stm32f10x_bkp.o(i.BKP_TamperPinCmd), (12 bytes).
    Removing stm32f10x_bkp.o(i.BKP_TamperPinLevelConfig), (12 bytes).
    Removing stm32f10x_bkp.o(i.BKP_WriteBackupRegister), (28 bytes).
    Removing stm32f10x_can.o(i.CAN_CancelTransmit), (48 bytes).
    Removing stm32f10x_can.o(i.CAN_ClearFlag), (56 bytes).
    Removing stm32f10x_can.o(i.CAN_ClearITPendingBit), (168 bytes).
    Removing stm32f10x_can.o(i.CAN_DBGFreeze), (22 bytes).
    Removing stm32f10x_can.o(i.CAN_DeInit), (56 bytes).
    Removing stm32f10x_can.o(i.CAN_FIFORelease), (22 bytes).
    Removing stm32f10x_can.o(i.CAN_FilterInit), (264 bytes).
    Removing stm32f10x_can.o(i.CAN_GetFlagStatus), (120 bytes).
    Removing stm32f10x_can.o(i.CAN_GetITStatus), (288 bytes).
    Removing stm32f10x_can.o(i.CAN_GetLSBTransmitErrorCounter), (12 bytes).
    Removing stm32f10x_can.o(i.CAN_GetLastErrorCode), (12 bytes).
    Removing stm32f10x_can.o(i.CAN_GetReceiveErrorCounter), (10 bytes).
    Removing stm32f10x_can.o(i.CAN_ITConfig), (18 bytes).
    Removing stm32f10x_can.o(i.CAN_Init), (276 bytes).
    Removing stm32f10x_can.o(i.CAN_MessagePending), (30 bytes).
    Removing stm32f10x_can.o(i.CAN_OperatingModeRequest), (162 bytes).
    Removing stm32f10x_can.o(i.CAN_Receive), (240 bytes).
    Removing stm32f10x_can.o(i.CAN_SlaveStartBank), (52 bytes).
    Removing stm32f10x_can.o(i.CAN_Sleep), (30 bytes).
    Removing stm32f10x_can.o(i.CAN_StructInit), (32 bytes).
    Removing stm32f10x_can.o(i.CAN_TTComModeCmd), (118 bytes).
    Removing stm32f10x_can.o(i.CAN_Transmit), (294 bytes).
    Removing stm32f10x_can.o(i.CAN_TransmitStatus), (160 bytes).
    Removing stm32f10x_can.o(i.CAN_WakeUp), (48 bytes).
    Removing stm32f10x_can.o(i.CheckITStatus), (18 bytes).
    Removing stm32f10x_cec.o(i.CEC_ClearFlag), (36 bytes).
    Removing stm32f10x_cec.o(i.CEC_ClearITPendingBit), (36 bytes).
    Removing stm32f10x_cec.o(i.CEC_Cmd), (32 bytes).
    Removing stm32f10x_cec.o(i.CEC_DeInit), (22 bytes).
    Removing stm32f10x_cec.o(i.CEC_EndOfMessageCmd), (12 bytes).
    Removing stm32f10x_cec.o(i.CEC_GetFlagStatus), (48 bytes).
    Removing stm32f10x_cec.o(i.CEC_GetITStatus), (40 bytes).
    Removing stm32f10x_cec.o(i.CEC_ITConfig), (12 bytes).
    Removing stm32f10x_cec.o(i.CEC_Init), (32 bytes).
    Removing stm32f10x_cec.o(i.CEC_OwnAddressConfig), (12 bytes).
    Removing stm32f10x_cec.o(i.CEC_ReceiveDataByte), (12 bytes).
    Removing stm32f10x_cec.o(i.CEC_SendDataByte), (12 bytes).
    Removing stm32f10x_cec.o(i.CEC_SetPrescaler), (12 bytes).
    Removing stm32f10x_cec.o(i.CEC_StartOfMessage), (12 bytes).
    Removing stm32f10x_crc.o(i.CRC_CalcBlockCRC), (36 bytes).
    Removing stm32f10x_crc.o(i.CRC_CalcCRC), (16 bytes).
    Removing stm32f10x_crc.o(i.CRC_GetCRC), (12 bytes).
    Removing stm32f10x_crc.o(i.CRC_GetIDRegister), (12 bytes).
    Removing stm32f10x_crc.o(i.CRC_ResetDR), (12 bytes).
    Removing stm32f10x_crc.o(i.CRC_SetIDRegister), (12 bytes).
    Removing stm32f10x_dac.o(i.DAC_Cmd), (40 bytes).
    Removing stm32f10x_dac.o(i.DAC_DMACmd), (44 bytes).
    Removing stm32f10x_dac.o(i.DAC_DeInit), (22 bytes).
    Removing stm32f10x_dac.o(i.DAC_DualSoftwareTriggerCmd), (36 bytes).
    Removing stm32f10x_dac.o(i.DAC_GetDataOutputValue), (36 bytes).
    Removing stm32f10x_dac.o(i.DAC_Init), (52 bytes).
    Removing stm32f10x_dac.o(i.DAC_SetChannel1Data), (32 bytes).
    Removing stm32f10x_dac.o(i.DAC_SetChannel2Data), (32 bytes).
    Removing stm32f10x_dac.o(i.DAC_SetDualChannelData), (36 bytes).
    Removing stm32f10x_dac.o(i.DAC_SoftwareTriggerCmd), (44 bytes).
    Removing stm32f10x_dac.o(i.DAC_StructInit), (12 bytes).
    Removing stm32f10x_dac.o(i.DAC_WaveGenerationCmd), (40 bytes).
    Removing stm32f10x_dbgmcu.o(i.DBGMCU_Config), (32 bytes).
    Removing stm32f10x_dbgmcu.o(i.DBGMCU_GetDEVID), (16 bytes).
    Removing stm32f10x_dbgmcu.o(i.DBGMCU_GetREVID), (12 bytes).
    Removing stm32f10x_dma.o(i.DMA_ClearFlag), (28 bytes).
    Removing stm32f10x_dma.o(i.DMA_ClearITPendingBit), (28 bytes).
    Removing stm32f10x_dma.o(i.DMA_Cmd), (24 bytes).
    Removing stm32f10x_dma.o(i.DMA_DeInit), (332 bytes).
    Removing stm32f10x_dma.o(i.DMA_GetCurrDataCounter), (8 bytes).
    Removing stm32f10x_dma.o(i.DMA_GetFlagStatus), (44 bytes).
    Removing stm32f10x_dma.o(i.DMA_GetITStatus), (44 bytes).
    Removing stm32f10x_dma.o(i.DMA_ITConfig), (18 bytes).
    Removing stm32f10x_dma.o(i.DMA_Init), (60 bytes).
    Removing stm32f10x_dma.o(i.DMA_SetCurrDataCounter), (4 bytes).
    Removing stm32f10x_dma.o(i.DMA_StructInit), (26 bytes).
    Removing stm32f10x_exti.o(i.EXTI_ClearFlag), (12 bytes).
    Removing stm32f10x_exti.o(i.EXTI_DeInit), (36 bytes).
    Removing stm32f10x_exti.o(i.EXTI_GenerateSWInterrupt), (16 bytes).
    Removing stm32f10x_exti.o(i.EXTI_GetFlagStatus), (24 bytes).
    Removing stm32f10x_exti.o(i.EXTI_StructInit), (16 bytes).
    Removing stm32f10x_flash.o(i.FLASH_ClearFlag), (12 bytes).
    Removing stm32f10x_flash.o(i.FLASH_EnableWriteProtection), (196 bytes).
    Removing stm32f10x_flash.o(i.FLASH_EraseAllBank1Pages), (72 bytes).
    Removing stm32f10x_flash.o(i.FLASH_EraseAllPages), (72 bytes).
    Removing stm32f10x_flash.o(i.FLASH_EraseOptionBytes), (168 bytes).
    Removing stm32f10x_flash.o(i.FLASH_ErasePage), (76 bytes).
    Removing stm32f10x_flash.o(i.FLASH_GetBank1Status), (52 bytes).
    Removing stm32f10x_flash.o(i.FLASH_GetFlagStatus), (48 bytes).
    Removing stm32f10x_flash.o(i.FLASH_GetPrefetchBufferStatus), (24 bytes).
    Removing stm32f10x_flash.o(i.FLASH_GetReadOutProtectionStatus), (24 bytes).
    Removing stm32f10x_flash.o(i.FLASH_GetStatus), (52 bytes).
    Removing stm32f10x_flash.o(i.FLASH_GetUserOptionByte), (12 bytes).
    Removing stm32f10x_flash.o(i.FLASH_GetWriteProtectionOptionByte), (12 bytes).
    Removing stm32f10x_flash.o(i.FLASH_HalfCycleAccessCmd), (28 bytes).
    Removing stm32f10x_flash.o(i.FLASH_ITConfig), (32 bytes).
    Removing stm32f10x_flash.o(i.FLASH_Lock), (20 bytes).
    Removing stm32f10x_flash.o(i.FLASH_LockBank1), (20 bytes).
    Removing stm32f10x_flash.o(i.FLASH_PrefetchBufferCmd), (28 bytes).
    Removing stm32f10x_flash.o(i.FLASH_ProgramHalfWord), (64 bytes).
    Removing stm32f10x_flash.o(i.FLASH_ProgramOptionByteData), (84 bytes).
    Removing stm32f10x_flash.o(i.FLASH_ProgramWord), (108 bytes).
    Removing stm32f10x_flash.o(i.FLASH_ReadOutProtection), (172 bytes).
    Removing stm32f10x_flash.o(i.FLASH_SetLatency), (24 bytes).
    Removing stm32f10x_flash.o(i.FLASH_Unlock), (24 bytes).
    Removing stm32f10x_flash.o(i.FLASH_UnlockBank1), (24 bytes).
    Removing stm32f10x_flash.o(i.FLASH_UserOptionByteConfig), (104 bytes).
    Removing stm32f10x_flash.o(i.FLASH_WaitForLastBank1Operation), (38 bytes).
    Removing stm32f10x_flash.o(i.FLASH_WaitForLastOperation), (38 bytes).
    Removing stm32f10x_fsmc.o(i.FSMC_ClearFlag), (64 bytes).
    Removing stm32f10x_fsmc.o(i.FSMC_ClearITPendingBit), (72 bytes).
    Removing stm32f10x_fsmc.o(i.FSMC_GetECC), (28 bytes).
    Removing stm32f10x_fsmc.o(i.FSMC_GetFlagStatus), (56 bytes).
    Removing stm32f10x_fsmc.o(i.FSMC_GetITStatus), (68 bytes).
    Removing stm32f10x_fsmc.o(i.FSMC_ITConfig), (128 bytes).
    Removing stm32f10x_fsmc.o(i.FSMC_NANDCmd), (92 bytes).
    Removing stm32f10x_fsmc.o(i.FSMC_NANDDeInit), (68 bytes).
    Removing stm32f10x_fsmc.o(i.FSMC_NANDECCCmd), (92 bytes).
    Removing stm32f10x_fsmc.o(i.FSMC_NANDInit), (136 bytes).
    Removing stm32f10x_fsmc.o(i.FSMC_NANDStructInit), (54 bytes).
    Removing stm32f10x_fsmc.o(i.FSMC_NORSRAMCmd), (52 bytes).
    Removing stm32f10x_fsmc.o(i.FSMC_NORSRAMDeInit), (54 bytes).
    Removing stm32f10x_fsmc.o(i.FSMC_NORSRAMInit), (230 bytes).
    Removing stm32f10x_fsmc.o(i.FSMC_NORSRAMStructInit), (114 bytes).
    Removing stm32f10x_fsmc.o(i.FSMC_PCCARDCmd), (48 bytes).
    Removing stm32f10x_fsmc.o(i.FSMC_PCCARDDeInit), (40 bytes).
    Removing stm32f10x_fsmc.o(i.FSMC_PCCARDInit), (132 bytes).
    Removing stm32f10x_fsmc.o(i.FSMC_PCCARDStructInit), (60 bytes).
    Removing stm32f10x_gpio.o(i.GPIO_AFIODeInit), (20 bytes).
    Removing stm32f10x_gpio.o(i.GPIO_DeInit), (200 bytes).
    Removing stm32f10x_gpio.o(i.GPIO_ETH_MediaInterfaceConfig), (12 bytes).
    Removing stm32f10x_gpio.o(i.GPIO_EventOutputCmd), (12 bytes).
    Removing stm32f10x_gpio.o(i.GPIO_EventOutputConfig), (32 bytes).
    Removing stm32f10x_gpio.o(i.GPIO_PinLockConfig), (18 bytes).
    Removing stm32f10x_gpio.o(i.GPIO_PinRemapConfig), (144 bytes).
    Removing stm32f10x_gpio.o(i.GPIO_ReadInputData), (8 bytes).
    Removing stm32f10x_gpio.o(i.GPIO_ReadOutputData), (8 bytes).
    Removing stm32f10x_gpio.o(i.GPIO_ReadOutputDataBit), (18 bytes).
    Removing stm32f10x_gpio.o(i.GPIO_StructInit), (16 bytes).
    Removing stm32f10x_gpio.o(i.GPIO_Write), (4 bytes).
    Removing stm32f10x_gpio.o(i.GPIO_WriteBit), (10 bytes).
    Removing stm32f10x_i2c.o(i.I2C_ARPCmd), (24 bytes).
    Removing stm32f10x_i2c.o(i.I2C_AcknowledgeConfig), (24 bytes).
    Removing stm32f10x_i2c.o(i.I2C_CalculatePEC), (24 bytes).
    Removing stm32f10x_i2c.o(i.I2C_CheckEvent), (42 bytes).
    Removing stm32f10x_i2c.o(i.I2C_ClearFlag), (12 bytes).
    Removing stm32f10x_i2c.o(i.I2C_ClearITPendingBit), (12 bytes).
    Removing stm32f10x_i2c.o(i.I2C_Cmd), (24 bytes).
    Removing stm32f10x_i2c.o(i.I2C_DMACmd), (24 bytes).
    Removing stm32f10x_i2c.o(i.I2C_DMALastTransferCmd), (24 bytes).
    Removing stm32f10x_i2c.o(i.I2C_DeInit), (56 bytes).
    Removing stm32f10x_i2c.o(i.I2C_DualAddressCmd), (24 bytes).
    Removing stm32f10x_i2c.o(i.I2C_FastModeDutyCycleConfig), (28 bytes).
    Removing stm32f10x_i2c.o(i.I2C_GeneralCallCmd), (24 bytes).
    Removing stm32f10x_i2c.o(i.I2C_GenerateSTART), (24 bytes).
    Removing stm32f10x_i2c.o(i.I2C_GenerateSTOP), (24 bytes).
    Removing stm32f10x_i2c.o(i.I2C_GetFlagStatus), (58 bytes).
    Removing stm32f10x_i2c.o(i.I2C_GetITStatus), (38 bytes).
    Removing stm32f10x_i2c.o(i.I2C_GetLastEvent), (26 bytes).
    Removing stm32f10x_i2c.o(i.I2C_GetPEC), (8 bytes).
    Removing stm32f10x_i2c.o(i.I2C_ITConfig), (18 bytes).
    Removing stm32f10x_i2c.o(i.I2C_Init), (236 bytes).
    Removing stm32f10x_i2c.o(i.I2C_NACKPositionConfig), (28 bytes).
    Removing stm32f10x_i2c.o(i.I2C_OwnAddress2Config), (22 bytes).
    Removing stm32f10x_i2c.o(i.I2C_PECPositionConfig), (28 bytes).
    Removing stm32f10x_i2c.o(i.I2C_ReadRegister), (22 bytes).
    Removing stm32f10x_i2c.o(i.I2C_ReceiveData), (8 bytes).
    Removing stm32f10x_i2c.o(i.I2C_SMBusAlertConfig), (28 bytes).
    Removing stm32f10x_i2c.o(i.I2C_Send7bitAddress), (18 bytes).
    Removing stm32f10x_i2c.o(i.I2C_SendData), (4 bytes).
    Removing stm32f10x_i2c.o(i.I2C_SoftwareResetCmd), (22 bytes).
    Removing stm32f10x_i2c.o(i.I2C_StretchClockCmd), (24 bytes).
    Removing stm32f10x_i2c.o(i.I2C_StructInit), (30 bytes).
    Removing stm32f10x_i2c.o(i.I2C_TransmitPEC), (24 bytes).
    Removing stm32f10x_iwdg.o(i.IWDG_Enable), (16 bytes).
    Removing stm32f10x_iwdg.o(i.IWDG_GetFlagStatus), (24 bytes).
    Removing stm32f10x_iwdg.o(i.IWDG_ReloadCounter), (16 bytes).
    Removing stm32f10x_iwdg.o(i.IWDG_SetPrescaler), (12 bytes).
    Removing stm32f10x_iwdg.o(i.IWDG_SetReload), (12 bytes).
    Removing stm32f10x_iwdg.o(i.IWDG_WriteAccessCmd), (12 bytes).
    Removing stm32f10x_pwr.o(i.PWR_DeInit), (22 bytes).
    Removing stm32f10x_pwr.o(i.PWR_EnterSTANDBYMode), (52 bytes).
    Removing stm32f10x_pwr.o(i.PWR_EnterSTOPMode), (64 bytes).
    Removing stm32f10x_pwr.o(i.PWR_PVDCmd), (12 bytes).
    Removing stm32f10x_pwr.o(i.PWR_PVDLevelConfig), (24 bytes).
    Removing stm32f10x_pwr.o(i.PWR_WakeUpPinCmd), (12 bytes).
    Removing stm32f10x_rcc.o(i.RCC_ADCCLKConfig), (24 bytes).
    Removing stm32f10x_rcc.o(i.RCC_AHBPeriphClockCmd), (32 bytes).
    Removing stm32f10x_rcc.o(i.RCC_APB1PeriphResetCmd), (32 bytes).
    Removing stm32f10x_rcc.o(i.RCC_APB2PeriphResetCmd), (32 bytes).
    Removing stm32f10x_rcc.o(i.RCC_AdjustHSICalibrationValue), (24 bytes).
    Removing stm32f10x_rcc.o(i.RCC_ClearFlag), (20 bytes).
    Removing stm32f10x_rcc.o(i.RCC_ClearITPendingBit), (12 bytes).
    Removing stm32f10x_rcc.o(i.RCC_ClockSecuritySystemCmd), (12 bytes).
    Removing stm32f10x_rcc.o(i.RCC_DeInit), (76 bytes).
    Removing stm32f10x_rcc.o(i.RCC_GetITStatus), (24 bytes).
    Removing stm32f10x_rcc.o(i.RCC_GetSYSCLKSource), (16 bytes).
    Removing stm32f10x_rcc.o(i.RCC_HCLKConfig), (24 bytes).
    Removing stm32f10x_rcc.o(i.RCC_HSEConfig), (76 bytes).
    Removing stm32f10x_rcc.o(i.RCC_HSICmd), (12 bytes).
    Removing stm32f10x_rcc.o(i.RCC_ITConfig), (32 bytes).
    Removing stm32f10x_rcc.o(i.RCC_LSEConfig), (52 bytes).
    Removing stm32f10x_rcc.o(i.RCC_MCOConfig), (12 bytes).
    Removing stm32f10x_rcc.o(i.RCC_PCLK1Config), (24 bytes).
    Removing stm32f10x_rcc.o(i.RCC_PCLK2Config), (24 bytes).
    Removing stm32f10x_rcc.o(i.RCC_PLLCmd), (12 bytes).
    Removing stm32f10x_rcc.o(i.RCC_PLLConfig), (28 bytes).
    Removing stm32f10x_rcc.o(i.RCC_SYSCLKConfig), (24 bytes).
    Removing stm32f10x_rcc.o(i.RCC_USBCLKConfig), (12 bytes).
    Removing stm32f10x_rcc.o(i.RCC_WaitForHSEStartUp), (56 bytes).
    Removing stm32f10x_rtc.o(i.RTC_ClearFlag), (16 bytes).
    Removing stm32f10x_rtc.o(i.RTC_GetCounter), (20 bytes).
    Removing stm32f10x_rtc.o(i.RTC_GetDivider), (24 bytes).
    Removing stm32f10x_rtc.o(i.RTC_GetFlagStatus), (24 bytes).
    Removing stm32f10x_rtc.o(i.RTC_SetAlarm), (28 bytes).
    Removing stm32f10x_sdio.o(i.SDIO_CEATAITCmd), (16 bytes).
    Removing stm32f10x_sdio.o(i.SDIO_ClearFlag), (12 bytes).
    Removing stm32f10x_sdio.o(i.SDIO_ClearITPendingBit), (12 bytes).
    Removing stm32f10x_sdio.o(i.SDIO_ClockCmd), (12 bytes).
    Removing stm32f10x_sdio.o(i.SDIO_CmdStructInit), (14 bytes).
    Removing stm32f10x_sdio.o(i.SDIO_CommandCompletionCmd), (12 bytes).
    Removing stm32f10x_sdio.o(i.SDIO_DMACmd), (12 bytes).
    Removing stm32f10x_sdio.o(i.SDIO_DataConfig), (48 bytes).
    Removing stm32f10x_sdio.o(i.SDIO_DataStructInit), (20 bytes).
    Removing stm32f10x_sdio.o(i.SDIO_DeInit), (36 bytes).
    Removing stm32f10x_sdio.o(i.SDIO_GetCommandResponse), (12 bytes).
    Removing stm32f10x_sdio.o(i.SDIO_GetDataCounter), (12 bytes).
    Removing stm32f10x_sdio.o(i.SDIO_GetFIFOCount), (12 bytes).
    Removing stm32f10x_sdio.o(i.SDIO_GetFlagStatus), (24 bytes).
    Removing stm32f10x_sdio.o(i.SDIO_GetITStatus), (24 bytes).
    Removing stm32f10x_sdio.o(i.SDIO_GetPowerState), (16 bytes).
    Removing stm32f10x_sdio.o(i.SDIO_GetResponse), (24 bytes).
    Removing stm32f10x_sdio.o(i.SDIO_ITConfig), (32 bytes).
    Removing stm32f10x_sdio.o(i.SDIO_Init), (48 bytes).
    Removing stm32f10x_sdio.o(i.SDIO_ReadData), (12 bytes).
    Removing stm32f10x_sdio.o(i.SDIO_SendCEATACmd), (12 bytes).
    Removing stm32f10x_sdio.o(i.SDIO_SendCommand), (44 bytes).
    Removing stm32f10x_sdio.o(i.SDIO_SendSDIOSuspendCmd), (12 bytes).
    Removing stm32f10x_sdio.o(i.SDIO_SetPowerState), (28 bytes).
    Removing stm32f10x_sdio.o(i.SDIO_SetSDIOOperation), (12 bytes).
    Removing stm32f10x_sdio.o(i.SDIO_SetSDIOReadWaitMode), (12 bytes).
    Removing stm32f10x_sdio.o(i.SDIO_StartSDIOReadWait), (12 bytes).
    Removing stm32f10x_sdio.o(i.SDIO_StopSDIOReadWait), (12 bytes).
    Removing stm32f10x_sdio.o(i.SDIO_StructInit), (16 bytes).
    Removing stm32f10x_sdio.o(i.SDIO_WriteData), (12 bytes).
    Removing stm32f10x_spi.o(i.I2S_Cmd), (24 bytes).
    Removing stm32f10x_spi.o(i.I2S_Init), (232 bytes).
    Removing stm32f10x_spi.o(i.I2S_StructInit), (20 bytes).
    Removing stm32f10x_spi.o(i.SPI_BiDirectionalLineConfig), (28 bytes).
    Removing stm32f10x_spi.o(i.SPI_CalculateCRC), (24 bytes).
    Removing stm32f10x_spi.o(i.SPI_Cmd), (24 bytes).
    Removing stm32f10x_spi.o(i.SPI_DataSizeConfig), (18 bytes).
    Removing stm32f10x_spi.o(i.SPI_GetCRC), (16 bytes).
    Removing stm32f10x_spi.o(i.SPI_GetCRCPolynomial), (6 bytes).
    Removing stm32f10x_spi.o(i.SPI_I2S_ClearFlag), (6 bytes).
    Removing stm32f10x_spi.o(i.SPI_I2S_ClearITPendingBit), (20 bytes).
    Removing stm32f10x_spi.o(i.SPI_I2S_DMACmd), (18 bytes).
    Removing stm32f10x_spi.o(i.SPI_I2S_DeInit), (88 bytes).
    Removing stm32f10x_spi.o(i.SPI_I2S_GetFlagStatus), (18 bytes).
    Removing stm32f10x_spi.o(i.SPI_I2S_GetITStatus), (52 bytes).
    Removing stm32f10x_spi.o(i.SPI_I2S_ITConfig), (32 bytes).
    Removing stm32f10x_spi.o(i.SPI_I2S_ReceiveData), (6 bytes).
    Removing stm32f10x_spi.o(i.SPI_I2S_SendData), (4 bytes).
    Removing stm32f10x_spi.o(i.SPI_Init), (60 bytes).
    Removing stm32f10x_spi.o(i.SPI_NSSInternalSoftwareConfig), (30 bytes).
    Removing stm32f10x_spi.o(i.SPI_SSOutputCmd), (24 bytes).
    Removing stm32f10x_spi.o(i.SPI_StructInit), (24 bytes).
    Removing stm32f10x_spi.o(i.SPI_TransmitCRC), (10 bytes).
    Removing stm32f10x_tim.o(i.TI1_Config), (128 bytes).
    Removing stm32f10x_tim.o(i.TI2_Config), (152 bytes).
    Removing stm32f10x_tim.o(i.TI3_Config), (144 bytes).
    Removing stm32f10x_tim.o(i.TI4_Config), (152 bytes).
    Removing stm32f10x_tim.o(i.TIM_ARRPreloadConfig), (24 bytes).
    Removing stm32f10x_tim.o(i.TIM_BDTRConfig), (32 bytes).
    Removing stm32f10x_tim.o(i.TIM_BDTRStructInit), (18 bytes).
    Removing stm32f10x_tim.o(i.TIM_CCPreloadControl), (24 bytes).
    Removing stm32f10x_tim.o(i.TIM_CCxCmd), (30 bytes).
    Removing stm32f10x_tim.o(i.TIM_CCxNCmd), (30 bytes).
    Removing stm32f10x_tim.o(i.TIM_ClearFlag), (6 bytes).
    Removing stm32f10x_tim.o(i.TIM_ClearITPendingBit), (6 bytes).
    Removing stm32f10x_tim.o(i.TIM_ClearOC1Ref), (18 bytes).
    Removing stm32f10x_tim.o(i.TIM_ClearOC2Ref), (24 bytes).
    Removing stm32f10x_tim.o(i.TIM_ClearOC3Ref), (18 bytes).
    Removing stm32f10x_tim.o(i.TIM_ClearOC4Ref), (24 bytes).
    Removing stm32f10x_tim.o(i.TIM_Cmd), (24 bytes).
    Removing stm32f10x_tim.o(i.TIM_CounterModeConfig), (18 bytes).
    Removing stm32f10x_tim.o(i.TIM_CtrlPWMOutputs), (30 bytes).
    Removing stm32f10x_tim.o(i.TIM_DMACmd), (18 bytes).
    Removing stm32f10x_tim.o(i.TIM_DMAConfig), (10 bytes).
    Removing stm32f10x_tim.o(i.TIM_DeInit), (488 bytes).
    Removing stm32f10x_tim.o(i.TIM_ETRClockMode1Config), (54 bytes).
    Removing stm32f10x_tim.o(i.TIM_ETRClockMode2Config), (32 bytes).
    Removing stm32f10x_tim.o(i.TIM_ETRConfig), (28 bytes).
    Removing stm32f10x_tim.o(i.TIM_EncoderInterfaceConfig), (66 bytes).
    Removing stm32f10x_tim.o(i.TIM_ForcedOC1Config), (18 bytes).
    Removing stm32f10x_tim.o(i.TIM_ForcedOC2Config), (26 bytes).
    Removing stm32f10x_tim.o(i.TIM_ForcedOC3Config), (18 bytes).
    Removing stm32f10x_tim.o(i.TIM_ForcedOC4Config), (26 bytes).
    Removing stm32f10x_tim.o(i.TIM_GenerateEvent), (4 bytes).
    Removing stm32f10x_tim.o(i.TIM_GetCapture1), (6 bytes).
    Removing stm32f10x_tim.o(i.TIM_GetCapture2), (6 bytes).
    Removing stm32f10x_tim.o(i.TIM_GetCapture3), (6 bytes).
    Removing stm32f10x_tim.o(i.TIM_GetCapture4), (8 bytes).
    Removing stm32f10x_tim.o(i.TIM_GetCounter), (6 bytes).
    Removing stm32f10x_tim.o(i.TIM_GetFlagStatus), (18 bytes).
    Removing stm32f10x_tim.o(i.TIM_GetITStatus), (34 bytes).
    Removing stm32f10x_tim.o(i.TIM_GetPrescaler), (6 bytes).
    Removing stm32f10x_tim.o(i.TIM_ICInit), (172 bytes).
    Removing stm32f10x_tim.o(i.TIM_ICStructInit), (18 bytes).
    Removing stm32f10x_tim.o(i.TIM_ITConfig), (18 bytes).
    Removing stm32f10x_tim.o(i.TIM_ITRxExternalClockConfig), (24 bytes).
    Removing stm32f10x_tim.o(i.TIM_InternalClockConfig), (12 bytes).
    Removing stm32f10x_tim.o(i.TIM_OC1FastConfig), (18 bytes).
    Removing stm32f10x_tim.o(i.TIM_OC1Init), (152 bytes).
    Removing stm32f10x_tim.o(i.TIM_OC1NPolarityConfig), (18 bytes).
    Removing stm32f10x_tim.o(i.TIM_OC1PolarityConfig), (18 bytes).
    Removing stm32f10x_tim.o(i.TIM_OC1PreloadConfig), (18 bytes).
    Removing stm32f10x_tim.o(i.TIM_OC2FastConfig), (26 bytes).
    Removing stm32f10x_tim.o(i.TIM_OC2Init), (164 bytes).
    Removing stm32f10x_tim.o(i.TIM_OC2NPolarityConfig), (26 bytes).
    Removing stm32f10x_tim.o(i.TIM_OC2PolarityConfig), (26 bytes).
    Removing stm32f10x_tim.o(i.TIM_OC2PreloadConfig), (26 bytes).
    Removing stm32f10x_tim.o(i.TIM_OC3FastConfig), (18 bytes).
    Removing stm32f10x_tim.o(i.TIM_OC3Init), (160 bytes).
    Removing stm32f10x_tim.o(i.TIM_OC3NPolarityConfig), (26 bytes).
    Removing stm32f10x_tim.o(i.TIM_OC3PolarityConfig), (26 bytes).
    Removing stm32f10x_tim.o(i.TIM_OC3PreloadConfig), (18 bytes).
    Removing stm32f10x_tim.o(i.TIM_OC4FastConfig), (26 bytes).
    Removing stm32f10x_tim.o(i.TIM_OC4Init), (124 bytes).
    Removing stm32f10x_tim.o(i.TIM_OC4PolarityConfig), (26 bytes).
    Removing stm32f10x_tim.o(i.TIM_OC4PreloadConfig), (26 bytes).
    Removing stm32f10x_tim.o(i.TIM_OCStructInit), (20 bytes).
    Removing stm32f10x_tim.o(i.TIM_PWMIConfig), (124 bytes).
    Removing stm32f10x_tim.o(i.TIM_PrescalerConfig), (6 bytes).
    Removing stm32f10x_tim.o(i.TIM_SelectCCDMA), (24 bytes).
    Removing stm32f10x_tim.o(i.TIM_SelectCOM), (24 bytes).
    Removing stm32f10x_tim.o(i.TIM_SelectHallSensor), (24 bytes).
    Removing stm32f10x_tim.o(i.TIM_SelectInputTrigger), (18 bytes).
    Removing stm32f10x_tim.o(i.TIM_SelectMasterSlaveMode), (18 bytes).
    Removing stm32f10x_tim.o(i.TIM_SelectOCxM), (82 bytes).
    Removing stm32f10x_tim.o(i.TIM_SelectOnePulseMode), (18 bytes).
    Removing stm32f10x_tim.o(i.TIM_SelectOutputTrigger), (18 bytes).
    Removing stm32f10x_tim.o(i.TIM_SelectSlaveMode), (18 bytes).
    Removing stm32f10x_tim.o(i.TIM_SetAutoreload), (4 bytes).
    Removing stm32f10x_tim.o(i.TIM_SetClockDivision), (18 bytes).
    Removing stm32f10x_tim.o(i.TIM_SetCompare1), (4 bytes).
    Removing stm32f10x_tim.o(i.TIM_SetCompare2), (4 bytes).
    Removing stm32f10x_tim.o(i.TIM_SetCompare3), (4 bytes).
    Removing stm32f10x_tim.o(i.TIM_SetCompare4), (6 bytes).
    Removing stm32f10x_tim.o(i.TIM_SetCounter), (4 bytes).
    Removing stm32f10x_tim.o(i.TIM_SetIC1Prescaler), (18 bytes).
    Removing stm32f10x_tim.o(i.TIM_SetIC2Prescaler), (26 bytes).
    Removing stm32f10x_tim.o(i.TIM_SetIC3Prescaler), (18 bytes).
    Removing stm32f10x_tim.o(i.TIM_SetIC4Prescaler), (26 bytes).
    Removing stm32f10x_tim.o(i.TIM_TIxExternalClockConfig), (62 bytes).
    Removing stm32f10x_tim.o(i.TIM_TimeBaseInit), (164 bytes).
    Removing stm32f10x_tim.o(i.TIM_TimeBaseStructInit), (18 bytes).
    Removing stm32f10x_tim.o(i.TIM_UpdateDisableConfig), (24 bytes).
    Removing stm32f10x_tim.o(i.TIM_UpdateRequestConfig), (24 bytes).
    Removing stm32f10x_usart.o(i.USART_ClearFlag), (18 bytes).
    Removing stm32f10x_usart.o(i.USART_ClearITPendingBit), (30 bytes).
    Removing stm32f10x_usart.o(i.USART_ClockInit), (34 bytes).
    Removing stm32f10x_usart.o(i.USART_ClockStructInit), (12 bytes).
    Removing stm32f10x_usart.o(i.USART_DMACmd), (18 bytes).
    Removing stm32f10x_usart.o(i.USART_DeInit), (156 bytes).
    Removing stm32f10x_usart.o(i.USART_GetFlagStatus), (26 bytes).
    Removing stm32f10x_usart.o(i.USART_HalfDuplexCmd), (24 bytes).
    Removing stm32f10x_usart.o(i.USART_IrDACmd), (24 bytes).
    Removing stm32f10x_usart.o(i.USART_IrDAConfig), (18 bytes).
    Removing stm32f10x_usart.o(i.USART_LINBreakDetectLengthConfig), (18 bytes).
    Removing stm32f10x_usart.o(i.USART_LINCmd), (24 bytes).
    Removing stm32f10x_usart.o(i.USART_OneBitMethodCmd), (24 bytes).
    Removing stm32f10x_usart.o(i.USART_OverSampling8Cmd), (22 bytes).
    Removing stm32f10x_usart.o(i.USART_ReceiveData), (10 bytes).
    Removing stm32f10x_usart.o(i.USART_ReceiverWakeUpCmd), (24 bytes).
    Removing stm32f10x_usart.o(i.USART_SendBreak), (10 bytes).
    Removing stm32f10x_usart.o(i.USART_SetAddress), (18 bytes).
    Removing stm32f10x_usart.o(i.USART_SetGuardTime), (16 bytes).
    Removing stm32f10x_usart.o(i.USART_SetPrescaler), (16 bytes).
    Removing stm32f10x_usart.o(i.USART_SmartCardCmd), (24 bytes).
    Removing stm32f10x_usart.o(i.USART_SmartCardNACKCmd), (24 bytes).
    Removing stm32f10x_usart.o(i.USART_StructInit), (24 bytes).
    Removing stm32f10x_usart.o(i.USART_WakeUpConfig), (18 bytes).
    Removing stm32f10x_wwdg.o(i.WWDG_ClearFlag), (12 bytes).
    Removing stm32f10x_wwdg.o(i.WWDG_DeInit), (22 bytes).
    Removing stm32f10x_wwdg.o(i.WWDG_Enable), (16 bytes).
    Removing stm32f10x_wwdg.o(i.WWDG_EnableIT), (12 bytes).
    Removing stm32f10x_wwdg.o(i.WWDG_GetFlagStatus), (12 bytes).
    Removing stm32f10x_wwdg.o(i.WWDG_SetCounter), (16 bytes).
    Removing stm32f10x_wwdg.o(i.WWDG_SetPrescaler), (24 bytes).
    Removing stm32f10x_wwdg.o(i.WWDG_SetWindowValue), (40 bytes).
    Removing main.o(.constdata), (12 bytes).
    Removing oled.o(i.OLED_6x8Str), (100 bytes).
    Removing oled.o(i.OLED_BMP), (116 bytes).
    Removing bsp_systick.o(i.NOP_pro), (22 bytes).
    Removing math_display.o(i.display), (40 bytes).
    Removing infrare.o(i.EXTI_INFRARE_Config), (80 bytes).
    Removing infrare.o(i.INFRARE_NVIC_Configuration), (38 bytes).
    Removing infrare.o(i.Infrare_BUTTON_Mode_IPD), (32 bytes).
    Removing cjson.o(i.cJSON_AddItemReferenceToArray), (32 bytes).
    Removing cjson.o(i.cJSON_AddItemReferenceToObject), (40 bytes).
    Removing cjson.o(i.cJSON_AddItemToArray), (44 bytes).
    Removing cjson.o(i.cJSON_AddItemToObject), (48 bytes).
    Removing cjson.o(i.cJSON_AddItemToObjectCS), (60 bytes).
    Removing cjson.o(i.cJSON_Compare), (322 bytes).
    Removing cjson.o(i.cJSON_CreateArray), (24 bytes).
    Removing cjson.o(i.cJSON_CreateBool), (32 bytes).
    Removing cjson.o(i.cJSON_CreateDoubleArray), (92 bytes).
    Removing cjson.o(i.cJSON_CreateFalse), (24 bytes).
    Removing cjson.o(i.cJSON_CreateFloatArray), (98 bytes).
    Removing cjson.o(i.cJSON_CreateIntArray), (98 bytes).
    Removing cjson.o(i.cJSON_CreateNull), (24 bytes).
    Removing cjson.o(i.cJSON_CreateNumber), (100 bytes).
    Removing cjson.o(i.cJSON_CreateObject), (24 bytes).
    Removing cjson.o(i.cJSON_CreateRaw), (52 bytes).
    Removing cjson.o(i.cJSON_CreateString), (52 bytes).
    Removing cjson.o(i.cJSON_CreateStringArray), (86 bytes).
    Removing cjson.o(i.cJSON_CreateTrue), (24 bytes).
    Removing cjson.o(i.cJSON_DeleteItemFromArray), (22 bytes).
    Removing cjson.o(i.cJSON_DeleteItemFromObject), (22 bytes).
    Removing cjson.o(i.cJSON_DeleteItemFromObjectCaseSensitive), (22 bytes).
    Removing cjson.o(i.cJSON_DetachItemFromArray), (34 bytes).
    Removing cjson.o(i.cJSON_DetachItemFromObject), (26 bytes).
    Removing cjson.o(i.cJSON_DetachItemFromObjectCaseSensitive), (26 bytes).
    Removing cjson.o(i.cJSON_DetachItemViaPointer), (50 bytes).
    Removing cjson.o(i.cJSON_Duplicate), (184 bytes).
    Removing cjson.o(i.cJSON_GetArrayItem), (24 bytes).
    Removing cjson.o(i.cJSON_GetArraySize), (18 bytes).
    Removing cjson.o(i.cJSON_GetErrorPtr), (16 bytes).
    Removing cjson.o(i.cJSON_GetObjectItemCaseSensitive), (18 bytes).
    Removing cjson.o(i.cJSON_HasObjectItem), (24 bytes).
    Removing cjson.o(i.cJSON_InitHooks), (100 bytes).
    Removing cjson.o(i.cJSON_InsertItemInArray), (68 bytes).
    Removing cjson.o(i.cJSON_IsArray), (22 bytes).
    Removing cjson.o(i.cJSON_IsBool), (24 bytes).
    Removing cjson.o(i.cJSON_IsFalse), (20 bytes).
    Removing cjson.o(i.cJSON_IsInvalid), (20 bytes).
    Removing cjson.o(i.cJSON_IsNull), (22 bytes).
    Removing cjson.o(i.cJSON_IsNumber), (22 bytes).
    Removing cjson.o(i.cJSON_IsObject), (22 bytes).
    Removing cjson.o(i.cJSON_IsRaw), (22 bytes).
    Removing cjson.o(i.cJSON_IsString), (22 bytes).
    Removing cjson.o(i.cJSON_IsTrue), (22 bytes).
    Removing cjson.o(i.cJSON_Minify), (186 bytes).
    Removing cjson.o(i.cJSON_Print), (20 bytes).
    Removing cjson.o(i.cJSON_PrintBuffered), (88 bytes).
    Removing cjson.o(i.cJSON_PrintPreallocated), (68 bytes).
    Removing cjson.o(i.cJSON_PrintUnformatted), (20 bytes).
    Removing cjson.o(i.cJSON_ReplaceItemInArray), (42 bytes).
    Removing cjson.o(i.cJSON_ReplaceItemInObject), (22 bytes).
    Removing cjson.o(i.cJSON_ReplaceItemInObjectCaseSensitive), (22 bytes).
    Removing cjson.o(i.cJSON_ReplaceItemViaPointer), (72 bytes).
    Removing cjson.o(i.cJSON_SetNumberHelper), (84 bytes).
    Removing cjson.o(i.cJSON_Version), (40 bytes).
    Removing cjson.o(i.cJSON_free), (20 bytes).
    Removing cjson.o(i.cJSON_malloc), (20 bytes).
    Removing cjson.o(i.cJSON_strdup), (54 bytes).
    Removing cjson.o(i.create_reference), (52 bytes).
    Removing cjson.o(i.ensure), (172 bytes).
    Removing cjson.o(i.get_array_item), (30 bytes).
    Removing cjson.o(i.print), (172 bytes).
    Removing cjson.o(i.print_array), (178 bytes).
    Removing cjson.o(i.print_number), (244 bytes).
    Removing cjson.o(i.print_object), (372 bytes).
    Removing cjson.o(i.print_string), (16 bytes).
    Removing cjson.o(i.print_string_ptr), (372 bytes).
    Removing cjson.o(i.print_value), (272 bytes).
    Removing cjson.o(i.replace_item_in_object), (88 bytes).
    Removing cjson.o(i.suffix_object), (6 bytes).
    Removing cjson.o(i.update_offset), (36 bytes).
    Removing cjson.o(.bss), (15 bytes).
    Removing led.o(i.Led_Toggle), (44 bytes).
    Removing usart3.o(i.UART3GetByte), (36 bytes).
    Removing usart3.o(i.UART3SendByte), (32 bytes).
    Removing usart3.o(i.UART3Test), (36 bytes).
    Removing yun.o(i.update1), (80 bytes).
    Removing yun.o(i.update2), (112 bytes).
    Removing yun.o(i.update3), (72 bytes).
    Removing stepmotor.o(i.MotorStop), (40 bytes).

526 unused section(s) (total 23389 bytes) removed from the image.

==============================================================================

Image Symbol Table

    Local Symbols

    Symbol Name                              Value     Ov Type        Size  Object(Section)

    ../clib/microlib/ctype/ctype.c           0x00000000   Number         0  isspace_c.o ABSOLUTE
    ../clib/microlib/ctype/ctype.c           0x00000000   Number         0  ctype_c.o ABSOLUTE
    ../clib/microlib/ctype/tolower.c         0x00000000   Number         0  tolower.o ABSOLUTE
    ../clib/microlib/division.c              0x00000000   Number         0  uidiv.o ABSOLUTE
    ../clib/microlib/division.c              0x00000000   Number         0  uldiv.o ABSOLUTE
    ../clib/microlib/init/entry.s            0x00000000   Number         0  entry9a.o ABSOLUTE
    ../clib/microlib/init/entry.s            0x00000000   Number         0  entry10b.o ABSOLUTE
    ../clib/microlib/init/entry.s            0x00000000   Number         0  entry10a.o ABSOLUTE
    ../clib/microlib/init/entry.s            0x00000000   Number         0  entry2.o ABSOLUTE
    ../clib/microlib/init/entry.s            0x00000000   Number         0  entry5.o ABSOLUTE
    ../clib/microlib/init/entry.s            0x00000000   Number         0  entry.o ABSOLUTE
    ../clib/microlib/init/entry.s            0x00000000   Number         0  entry9b.o ABSOLUTE
    ../clib/microlib/init/entry.s            0x00000000   Number         0  entry11b.o ABSOLUTE
    ../clib/microlib/init/entry.s            0x00000000   Number         0  entry7a.o ABSOLUTE
    ../clib/microlib/init/entry.s            0x00000000   Number         0  entry7b.o ABSOLUTE
    ../clib/microlib/init/entry.s            0x00000000   Number         0  entry8a.o ABSOLUTE
    ../clib/microlib/init/entry.s            0x00000000   Number         0  entry8b.o ABSOLUTE
    ../clib/microlib/init/entry.s            0x00000000   Number         0  entry11a.o ABSOLUTE
    ../clib/microlib/locale/ilconv.c         0x00000000   Number         0  ilconv.o ABSOLUTE
    ../clib/microlib/locale/localeconv.c     0x00000000   Number         0  localeconv.o ABSOLUTE
    ../clib/microlib/longlong.c              0x00000000   Number         0  llushr.o ABSOLUTE
    ../clib/microlib/longlong.c              0x00000000   Number         0  llshl.o ABSOLUTE
    ../clib/microlib/longlong.c              0x00000000   Number         0  llsshr.o ABSOLUTE
    ../clib/microlib/malloc/malloc.c         0x00000000   Number         0  malloca.o ABSOLUTE
    ../clib/microlib/malloc/malloc.c         0x00000000   Number         0  mallocra.o ABSOLUTE
    ../clib/microlib/malloc/malloc.c         0x00000000   Number         0  malloc.o ABSOLUTE
    ../clib/microlib/malloc/malloc.c         0x00000000   Number         0  mallocr.o ABSOLUTE
    ../clib/microlib/malloc/mvars.c          0x00000000   Number         0  mvars.o ABSOLUTE
    ../clib/microlib/printf/printf.c         0x00000000   Number         0  printf7.o ABSOLUTE
    ../clib/microlib/printf/printf.c         0x00000000   Number         0  printfa.o ABSOLUTE
    ../clib/microlib/printf/printf.c         0x00000000   Number         0  printf6.o ABSOLUTE
    ../clib/microlib/printf/printf.c         0x00000000   Number         0  printf5.o ABSOLUTE
    ../clib/microlib/printf/printf.c         0x00000000   Number         0  printf4.o ABSOLUTE
    ../clib/microlib/printf/printf.c         0x00000000   Number         0  printf8.o ABSOLUTE
    ../clib/microlib/printf/printf.c         0x00000000   Number         0  printf3.o ABSOLUTE
    ../clib/microlib/printf/printf.c         0x00000000   Number         0  printf2.o ABSOLUTE
    ../clib/microlib/printf/printf.c         0x00000000   Number         0  printf1.o ABSOLUTE
    ../clib/microlib/printf/printf.c         0x00000000   Number         0  printf0.o ABSOLUTE
    ../clib/microlib/printf/printf.c         0x00000000   Number         0  printfb.o ABSOLUTE
    ../clib/microlib/printf/stubs.s          0x00000000   Number         0  stubs.o ABSOLUTE
    ../clib/microlib/stdio/streams.c         0x00000000   Number         0  stdout.o ABSOLUTE
    ../clib/microlib/string/memcpy.c         0x00000000   Number         0  memcpya.o ABSOLUTE
    ../clib/microlib/string/memcpy.c         0x00000000   Number         0  memcpyb.o ABSOLUTE
    ../clib/microlib/string/memset.c         0x00000000   Number         0  memseta.o ABSOLUTE
    ../clib/microlib/string/strcmp.c         0x00000000   Number         0  strcmp.o ABSOLUTE
    ../clib/microlib/string/strcpy.c         0x00000000   Number         0  strcpy.o ABSOLUTE
    ../clib/microlib/string/strlen.c         0x00000000   Number         0  strlen.o ABSOLUTE
    ../clib/microlib/string/strncmp.c        0x00000000   Number         0  strncmp.o ABSOLUTE
    ../clib/microlib/stubs.s                 0x00000000   Number         0  iusefp.o ABSOLUTE
    ../clib/scanf.c                          0x00000000   Number         0  scanf_char.o ABSOLUTE
    ../clib/scanf.c                          0x00000000   Number         0  strtod.o ABSOLUTE
    ../clib/scanf.c                          0x00000000   Number         0  _sgetc.o ABSOLUTE
    ../clib/scanf.c                          0x00000000   Number         0  __0sscanf.o ABSOLUTE
    ../clib/scanf.c                          0x00000000   Number         0  _scanf.o ABSOLUTE
    ../clib/scanf.c                          0x00000000   Number         0  scanf_fp.o ABSOLUTE
    ../fplib/microlib/d2f.c                  0x00000000   Number         0  d2f.o ABSOLUTE
    ../fplib/microlib/f2d.c                  0x00000000   Number         0  f2d.o ABSOLUTE
    ../fplib/microlib/fpadd.c                0x00000000   Number         0  dadd.o ABSOLUTE
    ../fplib/microlib/fpadd.c                0x00000000   Number         0  fadd.o ABSOLUTE
    ../fplib/microlib/fpdiv.c                0x00000000   Number         0  ddiv.o ABSOLUTE
    ../fplib/microlib/fpepilogue.c           0x00000000   Number         0  fepilogue.o ABSOLUTE
    ../fplib/microlib/fpepilogue.c           0x00000000   Number         0  depilogue.o ABSOLUTE
    ../fplib/microlib/fpfix.c                0x00000000   Number         0  dfixi.o ABSOLUTE
    ../fplib/microlib/fpfix.c                0x00000000   Number         0  dfixul.o ABSOLUTE
    ../fplib/microlib/fpflt.c                0x00000000   Number         0  ffltui.o ABSOLUTE
    ../fplib/microlib/fpflt.c                0x00000000   Number         0  dflti.o ABSOLUTE
    ../fplib/microlib/fpflt.c                0x00000000   Number         0  dfltul.o ABSOLUTE
    ../fplib/microlib/fpflt.c                0x00000000   Number         0  fflti.o ABSOLUTE
    ../fplib/microlib/fpmul.c                0x00000000   Number         0  dmul.o ABSOLUTE
    ../mathlib/strtod.c                      0x00000000   Number         0  strtod.o ABSOLUTE
    ..\..\Libraries\CMSIS\core_cm3.c         0x00000000   Number         0  core_cm3.o ABSOLUTE
    ..\..\Libraries\CMSIS\startup\startup_stm32f10x_md.s 0x00000000   Number         0  startup_stm32f10x_md.o ABSOLUTE
    ..\..\Libraries\CMSIS\system_stm32f10x.c 0x00000000   Number         0  system_stm32f10x.o ABSOLUTE
    ..\..\Libraries\FWlib\src\misc.c         0x00000000   Number         0  misc.o ABSOLUTE
    ..\..\Libraries\FWlib\src\stm32f10x_adc.c 0x00000000   Number         0  stm32f10x_adc.o ABSOLUTE
    ..\..\Libraries\FWlib\src\stm32f10x_bkp.c 0x00000000   Number         0  stm32f10x_bkp.o ABSOLUTE
    ..\..\Libraries\FWlib\src\stm32f10x_can.c 0x00000000   Number         0  stm32f10x_can.o ABSOLUTE
    ..\..\Libraries\FWlib\src\stm32f10x_cec.c 0x00000000   Number         0  stm32f10x_cec.o ABSOLUTE
    ..\..\Libraries\FWlib\src\stm32f10x_crc.c 0x00000000   Number         0  stm32f10x_crc.o ABSOLUTE
    ..\..\Libraries\FWlib\src\stm32f10x_dac.c 0x00000000   Number         0  stm32f10x_dac.o ABSOLUTE
    ..\..\Libraries\FWlib\src\stm32f10x_dbgmcu.c 0x00000000   Number         0  stm32f10x_dbgmcu.o ABSOLUTE
    ..\..\Libraries\FWlib\src\stm32f10x_dma.c 0x00000000   Number         0  stm32f10x_dma.o ABSOLUTE
    ..\..\Libraries\FWlib\src\stm32f10x_exti.c 0x00000000   Number         0  stm32f10x_exti.o ABSOLUTE
    ..\..\Libraries\FWlib\src\stm32f10x_flash.c 0x00000000   Number         0  stm32f10x_flash.o ABSOLUTE
    ..\..\Libraries\FWlib\src\stm32f10x_fsmc.c 0x00000000   Number         0  stm32f10x_fsmc.o ABSOLUTE
    ..\..\Libraries\FWlib\src\stm32f10x_gpio.c 0x00000000   Number         0  stm32f10x_gpio.o ABSOLUTE
    ..\..\Libraries\FWlib\src\stm32f10x_i2c.c 0x00000000   Number         0  stm32f10x_i2c.o ABSOLUTE
    ..\..\Libraries\FWlib\src\stm32f10x_iwdg.c 0x00000000   Number         0  stm32f10x_iwdg.o ABSOLUTE
    ..\..\Libraries\FWlib\src\stm32f10x_pwr.c 0x00000000   Number         0  stm32f10x_pwr.o ABSOLUTE
    ..\..\Libraries\FWlib\src\stm32f10x_rcc.c 0x00000000   Number         0  stm32f10x_rcc.o ABSOLUTE
    ..\..\Libraries\FWlib\src\stm32f10x_rtc.c 0x00000000   Number         0  stm32f10x_rtc.o ABSOLUTE
    ..\..\Libraries\FWlib\src\stm32f10x_sdio.c 0x00000000   Number         0  stm32f10x_sdio.o ABSOLUTE
    ..\..\Libraries\FWlib\src\stm32f10x_spi.c 0x00000000   Number         0  stm32f10x_spi.o ABSOLUTE
    ..\..\Libraries\FWlib\src\stm32f10x_tim.c 0x00000000   Number         0  stm32f10x_tim.o ABSOLUTE
    ..\..\Libraries\FWlib\src\stm32f10x_usart.c 0x00000000   Number         0  stm32f10x_usart.o ABSOLUTE
    ..\..\Libraries\FWlib\src\stm32f10x_wwdg.c 0x00000000   Number         0  stm32f10x_wwdg.o ABSOLUTE
    ..\..\User\Infrare.c                     0x00000000   Number         0  infrare.o ABSOLUTE
    ..\..\User\LED\LED.c                     0x00000000   Number         0  led.o ABSOLUTE
    ..\..\User\OLED.c                        0x00000000   Number         0  oled.o ABSOLUTE
    ..\..\User\SysTick\bsp_SysTick.c         0x00000000   Number         0  bsp_systick.o ABSOLUTE
    ..\..\User\all_init.c                    0x00000000   Number         0  all_init.o ABSOLUTE
    ..\..\User\bsp_beep.c                    0x00000000   Number         0  bsp_beep.o ABSOLUTE
    ..\..\User\cJSON\cJSON.c                 0x00000000   Number         0  cjson.o ABSOLUTE
    ..\..\User\dht11\bsp_dht11.c             0x00000000   Number         0  bsp_dht11.o ABSOLUTE
    ..\..\User\floatTOs.c                    0x00000000   Number         0  floattos.o ABSOLUTE
    ..\..\User\main.c                        0x00000000   Number         0  main.o ABSOLUTE
    ..\..\User\math_display.c                0x00000000   Number         0  math_display.o ABSOLUTE
    ..\..\User\millis\millis.c               0x00000000   Number         0  millis.o ABSOLUTE
    ..\..\User\smoke.c                       0x00000000   Number         0  smoke.o ABSOLUTE
    ..\..\User\stepmotor\stepmotor.c         0x00000000   Number         0  stepmotor.o ABSOLUTE
    ..\..\User\stm32f10x_it.c                0x00000000   Number         0  stm32f10x_it.o ABSOLUTE
    ..\..\User\usart3\usart3.c               0x00000000   Number         0  usart3.o ABSOLUTE
    ..\..\User\yun\yun.c                     0x00000000   Number         0  yun.o ABSOLUTE
    ..\\..\\Libraries\\CMSIS\\core_cm3.c     0x00000000   Number         0  core_cm3.o ABSOLUTE
    cdcmple.s                                0x00000000   Number         0  cdcmple.o ABSOLUTE
    cdrcmple.s                               0x00000000   Number         0  cdrcmple.o ABSOLUTE
    dc.s                                     0x00000000   Number         0  dc.o ABSOLUTE
    handlers.s                               0x00000000   Number         0  handlers.o ABSOLUTE
    init.s                                   0x00000000   Number         0  init.o ABSOLUTE
    RESET                                    0x08000000   Section      236  startup_stm32f10x_md.o(RESET)
    .ARM.Collect$$$$00000000                 0x080000ec   Section        0  entry.o(.ARM.Collect$$$$00000000)
    .ARM.Collect$$$$00000001                 0x080000ec   Section        4  entry2.o(.ARM.Collect$$$$00000001)
    .ARM.Collect$$$$00000004                 0x080000f0   Section        4  entry5.o(.ARM.Collect$$$$00000004)
    .ARM.Collect$$$$00000008                 0x080000f4   Section        0  entry7b.o(.ARM.Collect$$$$00000008)
    .ARM.Collect$$$$0000000A                 0x080000f4   Section        0  entry8b.o(.ARM.Collect$$$$0000000A)
    .ARM.Collect$$$$0000000B                 0x080000f4   Section        8  entry9a.o(.ARM.Collect$$$$0000000B)
    .ARM.Collect$$$$0000000D                 0x080000fc   Section        0  entry10a.o(.ARM.Collect$$$$0000000D)
    .ARM.Collect$$$$0000000F                 0x080000fc   Section        0  entry11a.o(.ARM.Collect$$$$0000000F)
    .ARM.Collect$$$$00002712                 0x080000fc   Section        4  entry2.o(.ARM.Collect$$$$00002712)
    __lit__00000000                          0x080000fc   Data           4  entry2.o(.ARM.Collect$$$$00002712)
    .text                                    0x08000100   Section       36  startup_stm32f10x_md.o(.text)
    .text                                    0x08000124   Section        0  tolower.o(.text)
    .text                                    0x08000130   Section        0  localeconv.o(.text)
    .text                                    0x08000138   Section        0  memcpya.o(.text)
    .text                                    0x0800015c   Section        0  memseta.o(.text)
    .text                                    0x08000180   Section        0  strlen.o(.text)
    .text                                    0x0800018e   Section        0  strcmp.o(.text)
    .text                                    0x080001aa   Section        0  strncmp.o(.text)
    .text                                    0x080001c8   Section        0  scanf_fp.o(.text)
    _fp_value                                0x080001c9   Thumb Code   296  scanf_fp.o(.text)
    .text                                    0x08000528   Section        0  fadd.o(.text)
    .text                                    0x080005d8   Section        0  dadd.o(.text)
    .text                                    0x08000726   Section        0  dmul.o(.text)
    .text                                    0x0800080a   Section        0  ddiv.o(.text)
    .text                                    0x080008e8   Section        0  fflti.o(.text)
    .text                                    0x080008fa   Section        0  ffltui.o(.text)
    .text                                    0x08000904   Section        0  dflti.o(.text)
    .text                                    0x08000926   Section        0  dfixi.o(.text)
    .text                                    0x08000964   Section        0  f2d.o(.text)
    .text                                    0x0800098c   Section       48  cdcmple.o(.text)
    .text                                    0x080009bc   Section       48  cdrcmple.o(.text)
    .text                                    0x080009ec   Section        0  d2f.o(.text)
    .text                                    0x08000a24   Section        0  uidiv.o(.text)
    .text                                    0x08000a50   Section        0  uldiv.o(.text)
    .text                                    0x08000ab2   Section        0  llshl.o(.text)
    .text                                    0x08000ad0   Section        0  llushr.o(.text)
    .text                                    0x08000af0   Section        0  llsshr.o(.text)
    .text                                    0x08000b14   Section        0  _sgetc.o(.text)
    .text                                    0x08000b54   Section        0  strtod.o(.text)
    _local_sscanf                            0x08000b55   Thumb Code    54  strtod.o(.text)
    .text                                    0x08000bf0   Section        0  fepilogue.o(.text)
    .text                                    0x08000bf0   Section        0  iusefp.o(.text)
    .text                                    0x08000c5e   Section        0  depilogue.o(.text)
    .text                                    0x08000d18   Section        0  dfltul.o(.text)
    .text                                    0x08000d30   Section        0  dfixul.o(.text)
    .text                                    0x08000d60   Section       36  init.o(.text)
    .text                                    0x08000d84   Section        0  isspace_c.o(.text)
    .text                                    0x08000d90   Section        0  ctype_c.o(.text)
    i.BKP_DeInit                             0x08000db8   Section        0  stm32f10x_bkp.o(i.BKP_DeInit)
    i.Beep_GPIO_Config                       0x08000dc8   Section        0  bsp_beep.o(i.Beep_GPIO_Config)
    Beep_GPIO_Config                         0x08000dc9   Thumb Code    40  bsp_beep.o(i.Beep_GPIO_Config)
    i.Beep_Init                              0x08000df4   Section        0  bsp_beep.o(i.Beep_Init)
    i.BusFault_Handler                       0x08000e0c   Section        0  stm32f10x_it.o(i.BusFault_Handler)
    i.DHT11_GPIO_Config                      0x08000e10   Section        0  bsp_dht11.o(i.DHT11_GPIO_Config)
    DHT11_GPIO_Config                        0x08000e11   Thumb Code    38  bsp_dht11.o(i.DHT11_GPIO_Config)
    i.DHT11_Init                             0x08000e3c   Section        0  bsp_dht11.o(i.DHT11_Init)
    i.DHT11_Mode_IPU                         0x08000e50   Section        0  bsp_dht11.o(i.DHT11_Mode_IPU)
    DHT11_Mode_IPU                           0x08000e51   Thumb Code    24  bsp_dht11.o(i.DHT11_Mode_IPU)
    i.DHT11_Mode_Out_PP                      0x08000e6c   Section        0  bsp_dht11.o(i.DHT11_Mode_Out_PP)
    DHT11_Mode_Out_PP                        0x08000e6d   Thumb Code    30  bsp_dht11.o(i.DHT11_Mode_Out_PP)
    i.DHT11_ReadByte                         0x08000e90   Section        0  bsp_dht11.o(i.DHT11_ReadByte)
    DHT11_ReadByte                           0x08000e91   Thumb Code    90  bsp_dht11.o(i.DHT11_ReadByte)
    i.DHT11_Read_TempAndHumidity             0x08000ef0   Section        0  bsp_dht11.o(i.DHT11_Read_TempAndHumidity)
    i.DebugMon_Handler                       0x08000f94   Section        0  stm32f10x_it.o(i.DebugMon_Handler)
    i.Delay_us                               0x08000f98   Section        0  bsp_systick.o(i.Delay_us)
    i.Delay_xms                              0x08000fc0   Section        0  stepmotor.o(i.Delay_xms)
    i.EXTI4_IRQHandler                       0x08000fd8   Section        0  stm32f10x_it.o(i.EXTI4_IRQHandler)
    i.EXTI_ClearITPendingBit                 0x08001060   Section        0  stm32f10x_exti.o(i.EXTI_ClearITPendingBit)
    i.EXTI_GetITStatus                       0x0800106c   Section        0  stm32f10x_exti.o(i.EXTI_GetITStatus)
    i.EXTI_Init                              0x08001094   Section        0  stm32f10x_exti.o(i.EXTI_Init)
    i.EXTI_SMOKE_Config                      0x08001128   Section        0  smoke.o(i.EXTI_SMOKE_Config)
    i.GPIO_EXTILineConfig                    0x08001174   Section        0  stm32f10x_gpio.o(i.GPIO_EXTILineConfig)
    i.GPIO_Init                              0x080011b4   Section        0  stm32f10x_gpio.o(i.GPIO_Init)
    i.GPIO_ReadInputDataBit                  0x080012ca   Section        0  stm32f10x_gpio.o(i.GPIO_ReadInputDataBit)
    i.GPIO_ResetBits                         0x080012dc   Section        0  stm32f10x_gpio.o(i.GPIO_ResetBits)
    i.GPIO_SetBits                           0x080012e0   Section        0  stm32f10x_gpio.o(i.GPIO_SetBits)
    i.HardFault_Handler                      0x080012e4   Section        0  stm32f10x_it.o(i.HardFault_Handler)
    i.LED_Init                               0x080012e8   Section        0  led.o(i.LED_Init)
    i.Led_Off                                0x08001320   Section        0  led.o(i.Led_Off)
    i.Led_On                                 0x08001354   Section        0  led.o(i.Led_On)
    i.MILLIS_Init                            0x08001388   Section        0  millis.o(i.MILLIS_Init)
    i.MemManage_Handler                      0x0800144c   Section        0  stm32f10x_it.o(i.MemManage_Handler)
    i.Moto_Init                              0x08001450   Section        0  stepmotor.o(i.Moto_Init)
    i.Motor_angle                            0x08001484   Section        0  stepmotor.o(i.Motor_angle)
    i.Motorccw                               0x08001520   Section        0  stepmotor.o(i.Motorccw)
    i.Motorcw                                0x0800178c   Section        0  stepmotor.o(i.Motorcw)
    i.NMI_Handler                            0x080019f8   Section        0  stm32f10x_it.o(i.NMI_Handler)
    i.NVIC_Init                              0x080019fc   Section        0  misc.o(i.NVIC_Init)
    i.NVIC_PriorityGroupConfig               0x08001a6c   Section        0  misc.o(i.NVIC_PriorityGroupConfig)
    i.OLED_16x16CN                           0x08001a80   Section        0  oled.o(i.OLED_16x16CN)
    i.OLED_16x16CN_S_F                       0x08001adc   Section        0  oled.o(i.OLED_16x16CN_S_F)
    i.OLED_16x16CN_TIMU                      0x08001b38   Section        0  oled.o(i.OLED_16x16CN_TIMU)
    i.OLED_16x16CN_WENDU                     0x08001b94   Section        0  oled.o(i.OLED_16x16CN_WENDU)
    i.OLED_16x16CN_W_F                       0x08001bf0   Section        0  oled.o(i.OLED_16x16CN_W_F)
    i.OLED_16x16CN_XIAOFANG                  0x08001c4c   Section        0  oled.o(i.OLED_16x16CN_XIAOFANG)
    i.OLED_16x16CN_YICHANG                   0x08001ca8   Section        0  oled.o(i.OLED_16x16CN_YICHANG)
    i.OLED_16x16CN_ZHENCHANG                 0x08001d04   Section        0  oled.o(i.OLED_16x16CN_ZHENCHANG)
    i.OLED_8x16Str                           0x08001d60   Section        0  oled.o(i.OLED_8x16Str)
    i.OLED_CLS                               0x08001de8   Section        0  oled.o(i.OLED_CLS)
    i.OLED_Fill                              0x08001df2   Section        0  oled.o(i.OLED_Fill)
    i.OLED_Init                              0x08001e2c   Section        0  oled.o(i.OLED_Init)
    i.OLED_SetPos                            0x08001f20   Section        0  oled.o(i.OLED_SetPos)
    i.OLED_WrCmd                             0x08001f48   Section        0  oled.o(i.OLED_WrCmd)
    i.OLED_WrDat                             0x08001f9c   Section        0  oled.o(i.OLED_WrDat)
    i.PWR_BackupAccessCmd                    0x08001ff0   Section        0  stm32f10x_pwr.o(i.PWR_BackupAccessCmd)
    i.PWR_ClearFlag                          0x08001ffc   Section        0  stm32f10x_pwr.o(i.PWR_ClearFlag)
    i.PWR_GetFlagStatus                      0x08002010   Section        0  stm32f10x_pwr.o(i.PWR_GetFlagStatus)
    i.PendSV_Handler                         0x08002028   Section        0  stm32f10x_it.o(i.PendSV_Handler)
    i.RCC_APB1PeriphClockCmd                 0x0800202c   Section        0  stm32f10x_rcc.o(i.RCC_APB1PeriphClockCmd)
    i.RCC_APB2PeriphClockCmd                 0x0800204c   Section        0  stm32f10x_rcc.o(i.RCC_APB2PeriphClockCmd)
    i.RCC_BackupResetCmd                     0x0800206c   Section        0  stm32f10x_rcc.o(i.RCC_BackupResetCmd)
    i.RCC_GetClocksFreq                      0x08002078   Section        0  stm32f10x_rcc.o(i.RCC_GetClocksFreq)
    i.RCC_GetFlagStatus                      0x0800214c   Section        0  stm32f10x_rcc.o(i.RCC_GetFlagStatus)
    i.RCC_LSICmd                             0x08002188   Section        0  stm32f10x_rcc.o(i.RCC_LSICmd)
    i.RCC_RTCCLKCmd                          0x08002194   Section        0  stm32f10x_rcc.o(i.RCC_RTCCLKCmd)
    i.RCC_RTCCLKConfig                       0x080021a0   Section        0  stm32f10x_rcc.o(i.RCC_RTCCLKConfig)
    i.RTCAlarm_IRQHandler                    0x080021b0   Section        0  millis.o(i.RTCAlarm_IRQHandler)
    i.RTC_ClearITPendingBit                  0x080021cc   Section        0  stm32f10x_rtc.o(i.RTC_ClearITPendingBit)
    i.RTC_EnterConfigMode                    0x080021dc   Section        0  stm32f10x_rtc.o(i.RTC_EnterConfigMode)
    i.RTC_ExitConfigMode                     0x080021f0   Section        0  stm32f10x_rtc.o(i.RTC_ExitConfigMode)
    i.RTC_GetITStatus                        0x08002204   Section        0  stm32f10x_rtc.o(i.RTC_GetITStatus)
    i.RTC_IRQHandler                         0x08002228   Section        0  millis.o(i.RTC_IRQHandler)
    i.RTC_ITConfig                           0x08002258   Section        0  stm32f10x_rtc.o(i.RTC_ITConfig)
    i.RTC_SetCounter                         0x08002278   Section        0  stm32f10x_rtc.o(i.RTC_SetCounter)
    i.RTC_SetPrescaler                       0x08002294   Section        0  stm32f10x_rtc.o(i.RTC_SetPrescaler)
    i.RTC_WaitForLastTask                    0x080022b4   Section        0  stm32f10x_rtc.o(i.RTC_WaitForLastTask)
    i.RTC_WaitForSynchro                     0x080022c8   Section        0  stm32f10x_rtc.o(i.RTC_WaitForSynchro)
    i.SMOKE_NVIC_Configuration               0x080022ec   Section        0  smoke.o(i.SMOKE_NVIC_Configuration)
    SMOKE_NVIC_Configuration                 0x080022ed   Thumb Code    38  smoke.o(i.SMOKE_NVIC_Configuration)
    i.SVC_Handler                            0x08002312   Section        0  stm32f10x_it.o(i.SVC_Handler)
    i.SetSysClock                            0x08002314   Section        0  system_stm32f10x.o(i.SetSysClock)
    SetSysClock                              0x08002315   Thumb Code     8  system_stm32f10x.o(i.SetSysClock)
    i.SetSysClockTo72                        0x0800231c   Section        0  system_stm32f10x.o(i.SetSysClockTo72)
    SetSysClockTo72                          0x0800231d   Thumb Code   214  system_stm32f10x.o(i.SetSysClockTo72)
    i.SysTick_Handler                        0x080023fc   Section        0  stm32f10x_it.o(i.SysTick_Handler)
    i.SysTick_Init                           0x08002404   Section        0  bsp_systick.o(i.SysTick_Init)
    i.SystemInit                             0x08002480   Section        0  system_stm32f10x.o(i.SystemInit)
    i.TimingDelay_Decrement                  0x080024e0   Section        0  bsp_systick.o(i.TimingDelay_Decrement)
    i.USART3_Config                          0x080024f8   Section        0  usart3.o(i.USART3_Config)
    i.USART3_IRQHandler                      0x080025b0   Section        0  usart3.o(i.USART3_IRQHandler)
    i.USART_Cmd                              0x0800260c   Section        0  stm32f10x_usart.o(i.USART_Cmd)
    i.USART_GetITStatus                      0x08002624   Section        0  stm32f10x_usart.o(i.USART_GetITStatus)
    i.USART_ITConfig                         0x08002678   Section        0  stm32f10x_usart.o(i.USART_ITConfig)
    i.USART_Init                             0x080026c4   Section        0  stm32f10x_usart.o(i.USART_Init)
    i.USART_SendData                         0x0800279c   Section        0  stm32f10x_usart.o(i.USART_SendData)
    i.UsageFault_Handler                     0x080027a4   Section        0  stm32f10x_it.o(i.UsageFault_Handler)
    i.__0printf                              0x080027a8   Section        0  printfa.o(i.__0printf)
    i.__free$realloc                         0x080027c8   Section        0  mallocr.o(i.__free$realloc)
    i.__malloc$realloc                       0x08002824   Section        0  mallocr.o(i.__malloc$realloc)
    i.__scatterload_copy                     0x08002874   Section       14  handlers.o(i.__scatterload_copy)
    i.__scatterload_null                     0x08002882   Section        2  handlers.o(i.__scatterload_null)
    i.__scatterload_zeroinit                 0x08002884   Section       14  handlers.o(i.__scatterload_zeroinit)
    i._fp_digits                             0x08002894   Section        0  printfa.o(i._fp_digits)
    _fp_digits                               0x08002895   Thumb Code   366  printfa.o(i._fp_digits)
    i._is_digit                              0x08002a18   Section        0  scanf_fp.o(i._is_digit)
    i._printf_core                           0x08002a28   Section        0  printfa.o(i._printf_core)
    _printf_core                             0x08002a29   Thumb Code  1744  printfa.o(i._printf_core)
    i._printf_post_padding                   0x08003104   Section        0  printfa.o(i._printf_post_padding)
    _printf_post_padding                     0x08003105   Thumb Code    36  printfa.o(i._printf_post_padding)
    i._printf_pre_padding                    0x08003128   Section        0  printfa.o(i._printf_pre_padding)
    _printf_pre_padding                      0x08003129   Thumb Code    46  printfa.o(i._printf_pre_padding)
    i.alert                                  0x08003158   Section        0  yun.o(i.alert)
    i.all_init                               0x08003190   Section        0  all_init.o(i.all_init)
    i.buffer_skip_whitespace                 0x080031d0   Section        0  cjson.o(i.buffer_skip_whitespace)
    buffer_skip_whitespace                   0x080031d1   Thumb Code    58  cjson.o(i.buffer_skip_whitespace)
    i.cJSON_Delete                           0x0800320c   Section        0  cjson.o(i.cJSON_Delete)
    i.cJSON_GetObjectItem                    0x08003264   Section        0  cjson.o(i.cJSON_GetObjectItem)
    i.cJSON_New_Item                         0x08003276   Section        0  cjson.o(i.cJSON_New_Item)
    cJSON_New_Item                           0x08003277   Thumb Code    26  cjson.o(i.cJSON_New_Item)
    i.cJSON_Parse                            0x08003290   Section        0  cjson.o(i.cJSON_Parse)
    i.cJSON_ParseWithOpts                    0x080032a0   Section        0  cjson.o(i.cJSON_ParseWithOpts)
    i.case_insensitive_strcmp                0x08003370   Section        0  cjson.o(i.case_insensitive_strcmp)
    case_insensitive_strcmp                  0x08003371   Thumb Code    72  cjson.o(i.case_insensitive_strcmp)
    i.check_status                           0x080033b8   Section        0  yun.o(i.check_status)
    i.checkin                                0x080033d4   Section        0  yun.o(i.checkin)
    i.checkout                               0x0800341c   Section        0  yun.o(i.checkout)
    i.display_num                            0x08003468   Section        0  math_display.o(i.display_num)
    i.float_to_s                             0x080034cc   Section        0  floattos.o(i.float_to_s)
    i.fputc                                  0x080035a4   Section        0  usart3.o(i.fputc)
    i.get_decimal_point                      0x080035c8   Section        0  cjson.o(i.get_decimal_point)
    get_decimal_point                        0x080035c9   Thumb Code    14  cjson.o(i.get_decimal_point)
    i.get_object_item                        0x080035d6   Section        0  cjson.o(i.get_object_item)
    get_object_item                          0x080035d7   Thumb Code    68  cjson.o(i.get_object_item)
    i.internal_alloc                         0x0800361c   Section        0  mallocr.o(i.internal_alloc)
    internal_alloc                           0x0800361d   Thumb Code    76  mallocr.o(i.internal_alloc)
    i.main                                   0x0800366c   Section        0  main.o(i.main)
    i.maths                                  0x08003810   Section        0  math_display.o(i.maths)
    i.millis                                 0x08003858   Section        0  millis.o(i.millis)
    i.parse_array                            0x0800386c   Section        0  cjson.o(i.parse_array)
    parse_array                              0x0800386d   Thumb Code   244  cjson.o(i.parse_array)
    i.parse_hex4                             0x08003960   Section        0  cjson.o(i.parse_hex4)
    parse_hex4                               0x08003961   Thumb Code    90  cjson.o(i.parse_hex4)
    i.parse_number                           0x080039bc   Section        0  cjson.o(i.parse_number)
    parse_number                             0x080039bd   Thumb Code   298  cjson.o(i.parse_number)
    i.parse_object                           0x08003af4   Section        0  cjson.o(i.parse_object)
    parse_object                             0x08003af5   Thumb Code   314  cjson.o(i.parse_object)
    i.parse_string                           0x08003c2e   Section        0  cjson.o(i.parse_string)
    parse_string                             0x08003c2f   Thumb Code   396  cjson.o(i.parse_string)
    i.parse_value                            0x08003dbc   Section        0  cjson.o(i.parse_value)
    parse_value                              0x08003dbd   Thumb Code   290  cjson.o(i.parse_value)
    i.processMessage                         0x08003ef8   Section        0  main.o(i.processMessage)
    i.realloc                                0x08004214   Section        0  mallocr.o(i.realloc)
    i.say                                    0x08004280   Section        0  yun.o(i.say)
    i.show_first                             0x080042b4   Section        0  oled.o(i.show_first)
    i.show_state                             0x08004300   Section        0  oled.o(i.show_state)
    i.show_stay                              0x08004346   Section        0  oled.o(i.show_stay)
    i.strtod                                 0x080043d8   Section        0  strtod.o(i.strtod)
    i.update4                                0x080043f4   Section        0  yun.o(i.update4)
    i.update_zhen                            0x08004444   Section        0  yun.o(i.update_zhen)
    i.utf16_literal_to_utf8                  0x08004488   Section        0  cjson.o(i.utf16_literal_to_utf8)
    utf16_literal_to_utf8                    0x08004489   Thumb Code   300  cjson.o(i.utf16_literal_to_utf8)
    .constdata                               0x080045b4   Section     4968  oled.o(.constdata)
    .constdata                               0x0800591c   Section       56  ilconv.o(.constdata)
    .constdata                               0x08005954   Section       64  ctype_c.o(.constdata)
    .conststring                             0x08005994   Section       76  yun.o(.conststring)
    .conststring                             0x080059e0   Section        5  ilconv.o(.conststring)
    .data                                    0x20000000   Section       20  system_stm32f10x.o(.data)
    .data                                    0x20000014   Section       20  stm32f10x_rcc.o(.data)
    APBAHBPrescTable                         0x20000014   Data          16  stm32f10x_rcc.o(.data)
    ADCPrescTable                            0x20000024   Data           4  stm32f10x_rcc.o(.data)
    .data                                    0x20000028   Section       20  main.o(.data)
    .data                                    0x2000003c   Section        4  bsp_systick.o(.data)
    TimingDelay                              0x2000003c   Data           4  bsp_systick.o(.data)
    .data                                    0x20000040   Section       10  floattos.o(.data)
    table                                    0x20000040   Data          10  floattos.o(.data)
    .data                                    0x2000004c   Section       20  cjson.o(.data)
    global_error                             0x2000004c   Data           8  cjson.o(.data)
    global_hooks                             0x20000054   Data          12  cjson.o(.data)
    .data                                    0x20000060   Section        4  stdout.o(.data)
    .data                                    0x20000064   Section        4  mvars.o(.data)
    .data                                    0x20000068   Section        4  mvars.o(.data)
    .bss                                     0x2000006c   Section     1024  main.o(.bss)
    HEAP                                     0x20000470   Section      512  startup_stm32f10x_md.o(HEAP)
    STACK                                    0x20000670   Section     1024  startup_stm32f10x_md.o(STACK)

    Global Symbols

    Symbol Name                              Value     Ov Type        Size  Object(Section)

    BuildAttributes$$THM_ISAv4$P$D$K$B$S$PE$A:L22UL41UL21$X:L11$S22US41US21$IEEE1$IW$USESV6$~STKCKD$USESV7$~SHL$OTIME$ROPI$IEEEJ$EBA8$MICROLIB$REQ8$PRES8$EABIv2 0x00000000   Number         0  anon$$obj.o ABSOLUTE
    __ARM_use_no_argv                        0x00000000   Number         0  main.o ABSOLUTE
    _printf_a                                0x00000000   Number         0  stubs.o ABSOLUTE
    _printf_c                                0x00000000   Number         0  stubs.o ABSOLUTE
    _printf_charcount                        0x00000000   Number         0  stubs.o ABSOLUTE
    _printf_d                                0x00000000   Number         0  stubs.o ABSOLUTE
    _printf_e                                0x00000000   Number         0  stubs.o ABSOLUTE
    _printf_f                                0x00000000   Number         0  stubs.o ABSOLUTE
    _printf_flags                            0x00000000   Number         0  stubs.o ABSOLUTE
    _printf_fp_dec                           0x00000000   Number         0  stubs.o ABSOLUTE
    _printf_fp_hex                           0x00000000   Number         0  stubs.o ABSOLUTE
    _printf_g                                0x00000000   Number         0  stubs.o ABSOLUTE
    _printf_i                                0x00000000   Number         0  stubs.o ABSOLUTE
    _printf_int_dec                          0x00000000   Number         0  stubs.o ABSOLUTE
    _printf_l                                0x00000000   Number         0  stubs.o ABSOLUTE
    _printf_lc                               0x00000000   Number         0  stubs.o ABSOLUTE
    _printf_ll                               0x00000000   Number         0  stubs.o ABSOLUTE
    _printf_lld                              0x00000000   Number         0  stubs.o ABSOLUTE
    _printf_lli                              0x00000000   Number         0  stubs.o ABSOLUTE
    _printf_llo                              0x00000000   Number         0  stubs.o ABSOLUTE
    _printf_llu                              0x00000000   Number         0  stubs.o ABSOLUTE
    _printf_llx                              0x00000000   Number         0  stubs.o ABSOLUTE
    _printf_longlong_dec                     0x00000000   Number         0  stubs.o ABSOLUTE
    _printf_longlong_hex                     0x00000000   Number         0  stubs.o ABSOLUTE
    _printf_longlong_oct                     0x00000000   Number         0  stubs.o ABSOLUTE
    _printf_ls                               0x00000000   Number         0  stubs.o ABSOLUTE
    _printf_mbtowc                           0x00000000   Number         0  stubs.o ABSOLUTE
    _printf_n                                0x00000000   Number         0  stubs.o ABSOLUTE
    _printf_o                                0x00000000   Number         0  stubs.o ABSOLUTE
    _printf_p                                0x00000000   Number         0  stubs.o ABSOLUTE
    _printf_percent                          0x00000000   Number         0  stubs.o ABSOLUTE
    _printf_pre_padding                      0x00000000   Number         0  stubs.o ABSOLUTE
    _printf_return_value                     0x00000000   Number         0  stubs.o ABSOLUTE
    _printf_s                                0x00000000   Number         0  stubs.o ABSOLUTE
    _printf_sizespec                         0x00000000   Number         0  stubs.o ABSOLUTE
    _printf_str                              0x00000000   Number         0  stubs.o ABSOLUTE
    _printf_truncate_signed                  0x00000000   Number         0  stubs.o ABSOLUTE
    _printf_truncate_unsigned                0x00000000   Number         0  stubs.o ABSOLUTE
    _printf_u                                0x00000000   Number         0  stubs.o ABSOLUTE
    _printf_wc                               0x00000000   Number         0  stubs.o ABSOLUTE
    _printf_wctomb                           0x00000000   Number         0  stubs.o ABSOLUTE
    _printf_widthprec                        0x00000000   Number         0  stubs.o ABSOLUTE
    _printf_x                                0x00000000   Number         0  stubs.o ABSOLUTE
    __cpp_initialize__aeabi_                  - Undefined Weak Reference
    __cxa_finalize                            - Undefined Weak Reference
    __decompress                              - Undefined Weak Reference
    _clock_init                               - Undefined Weak Reference
    _microlib_exit                            - Undefined Weak Reference
    _scanf_int                                - Undefined Weak Reference
    _scanf_longlong                           - Undefined Weak Reference
    _scanf_string                             - Undefined Weak Reference
    __Vectors_Size                           0x000000ec   Number         0  startup_stm32f10x_md.o ABSOLUTE
    __Vectors                                0x08000000   Data           4  startup_stm32f10x_md.o(RESET)
    __Vectors_End                            0x080000ec   Data           0  startup_stm32f10x_md.o(RESET)
    __main                                   0x080000ed   Thumb Code     0  entry.o(.ARM.Collect$$$$00000000)
    _main_stk                                0x080000ed   Thumb Code     0  entry2.o(.ARM.Collect$$$$00000001)
    _main_scatterload                        0x080000f1   Thumb Code     0  entry5.o(.ARM.Collect$$$$00000004)
    __main_after_scatterload                 0x080000f5   Thumb Code     0  entry5.o(.ARM.Collect$$$$00000004)
    _main_clock                              0x080000f5   Thumb Code     0  entry7b.o(.ARM.Collect$$$$00000008)
    _main_cpp_init                           0x080000f5   Thumb Code     0  entry8b.o(.ARM.Collect$$$$0000000A)
    _main_init                               0x080000f5   Thumb Code     0  entry9a.o(.ARM.Collect$$$$0000000B)
    __rt_final_cpp                           0x080000fd   Thumb Code     0  entry10a.o(.ARM.Collect$$$$0000000D)
    __rt_final_exit                          0x080000fd   Thumb Code     0  entry11a.o(.ARM.Collect$$$$0000000F)
    Reset_Handler                            0x08000101   Thumb Code     8  startup_stm32f10x_md.o(.text)
    ADC1_2_IRQHandler                        0x0800011b   Thumb Code     0  startup_stm32f10x_md.o(.text)
    CAN1_RX1_IRQHandler                      0x0800011b   Thumb Code     0  startup_stm32f10x_md.o(.text)
    CAN1_SCE_IRQHandler                      0x0800011b   Thumb Code     0  startup_stm32f10x_md.o(.text)
    DMA1_Channel1_IRQHandler                 0x0800011b   Thumb Code     0  startup_stm32f10x_md.o(.text)
    DMA1_Channel2_IRQHandler                 0x0800011b   Thumb Code     0  startup_stm32f10x_md.o(.text)
    DMA1_Channel3_IRQHandler                 0x0800011b   Thumb Code     0  startup_stm32f10x_md.o(.text)
    DMA1_Channel4_IRQHandler                 0x0800011b   Thumb Code     0  startup_stm32f10x_md.o(.text)
    DMA1_Channel5_IRQHandler                 0x0800011b   Thumb Code     0  startup_stm32f10x_md.o(.text)
    DMA1_Channel6_IRQHandler                 0x0800011b   Thumb Code     0  startup_stm32f10x_md.o(.text)
    DMA1_Channel7_IRQHandler                 0x0800011b   Thumb Code     0  startup_stm32f10x_md.o(.text)
    EXTI0_IRQHandler                         0x0800011b   Thumb Code     0  startup_stm32f10x_md.o(.text)
    EXTI15_10_IRQHandler                     0x0800011b   Thumb Code     0  startup_stm32f10x_md.o(.text)
    EXTI1_IRQHandler                         0x0800011b   Thumb Code     0  startup_stm32f10x_md.o(.text)
    EXTI2_IRQHandler                         0x0800011b   Thumb Code     0  startup_stm32f10x_md.o(.text)
    EXTI3_IRQHandler                         0x0800011b   Thumb Code     0  startup_stm32f10x_md.o(.text)
    EXTI9_5_IRQHandler                       0x0800011b   Thumb Code     0  startup_stm32f10x_md.o(.text)
    FLASH_IRQHandler                         0x0800011b   Thumb Code     0  startup_stm32f10x_md.o(.text)
    I2C1_ER_IRQHandler                       0x0800011b   Thumb Code     0  startup_stm32f10x_md.o(.text)
    I2C1_EV_IRQHandler                       0x0800011b   Thumb Code     0  startup_stm32f10x_md.o(.text)
    I2C2_ER_IRQHandler                       0x0800011b   Thumb Code     0  startup_stm32f10x_md.o(.text)
    I2C2_EV_IRQHandler                       0x0800011b   Thumb Code     0  startup_stm32f10x_md.o(.text)
    PVD_IRQHandler                           0x0800011b   Thumb Code     0  startup_stm32f10x_md.o(.text)
    RCC_IRQHandler                           0x0800011b   Thumb Code     0  startup_stm32f10x_md.o(.text)
    SPI1_IRQHandler                          0x0800011b   Thumb Code     0  startup_stm32f10x_md.o(.text)
    SPI2_IRQHandler                          0x0800011b   Thumb Code     0  startup_stm32f10x_md.o(.text)
    TAMPER_IRQHandler                        0x0800011b   Thumb Code     0  startup_stm32f10x_md.o(.text)
    TIM1_BRK_IRQHandler                      0x0800011b   Thumb Code     0  startup_stm32f10x_md.o(.text)
    TIM1_CC_IRQHandler                       0x0800011b   Thumb Code     0  startup_stm32f10x_md.o(.text)
    TIM1_TRG_COM_IRQHandler                  0x0800011b   Thumb Code     0  startup_stm32f10x_md.o(.text)
    TIM1_UP_IRQHandler                       0x0800011b   Thumb Code     0  startup_stm32f10x_md.o(.text)
    TIM2_IRQHandler                          0x0800011b   Thumb Code     0  startup_stm32f10x_md.o(.text)
    TIM3_IRQHandler                          0x0800011b   Thumb Code     0  startup_stm32f10x_md.o(.text)
    TIM4_IRQHandler                          0x0800011b   Thumb Code     0  startup_stm32f10x_md.o(.text)
    USART1_IRQHandler                        0x0800011b   Thumb Code     0  startup_stm32f10x_md.o(.text)
    USART2_IRQHandler                        0x0800011b   Thumb Code     0  startup_stm32f10x_md.o(.text)
    USBWakeUp_IRQHandler                     0x0800011b   Thumb Code     0  startup_stm32f10x_md.o(.text)
    USB_HP_CAN1_TX_IRQHandler                0x0800011b   Thumb Code     0  startup_stm32f10x_md.o(.text)
    USB_LP_CAN1_RX0_IRQHandler               0x0800011b   Thumb Code     0  startup_stm32f10x_md.o(.text)
    WWDG_IRQHandler                          0x0800011b   Thumb Code     0  startup_stm32f10x_md.o(.text)
    tolower                                  0x08000125   Thumb Code    12  tolower.o(.text)
    localeconv                               0x08000131   Thumb Code     4  localeconv.o(.text)
    __aeabi_memcpy                           0x08000139   Thumb Code    36  memcpya.o(.text)
    __aeabi_memcpy4                          0x08000139   Thumb Code     0  memcpya.o(.text)
    __aeabi_memcpy8                          0x08000139   Thumb Code     0  memcpya.o(.text)
    __aeabi_memset                           0x0800015d   Thumb Code    14  memseta.o(.text)
    __aeabi_memset4                          0x0800015d   Thumb Code     0  memseta.o(.text)
    __aeabi_memset8                          0x0800015d   Thumb Code     0  memseta.o(.text)
    __aeabi_memclr                           0x0800016b   Thumb Code     4  memseta.o(.text)
    __aeabi_memclr4                          0x0800016b   Thumb Code     0  memseta.o(.text)
    __aeabi_memclr8                          0x0800016b   Thumb Code     0  memseta.o(.text)
    _memset$wrapper                          0x0800016f   Thumb Code    18  memseta.o(.text)
    strlen                                   0x08000181   Thumb Code    14  strlen.o(.text)
    strcmp                                   0x0800018f   Thumb Code    28  strcmp.o(.text)
    strncmp                                  0x080001ab   Thumb Code    30  strncmp.o(.text)
    _scanf_real                              0x080002f1   Thumb Code     0  scanf_fp.o(.text)
    _scanf_really_real                       0x080002f1   Thumb Code   556  scanf_fp.o(.text)
    __aeabi_fadd                             0x08000529   Thumb Code   164  fadd.o(.text)
    __aeabi_fsub                             0x080005cd   Thumb Code     6  fadd.o(.text)
    __aeabi_frsub                            0x080005d3   Thumb Code     6  fadd.o(.text)
    __aeabi_dadd                             0x080005d9   Thumb Code   322  dadd.o(.text)
    __aeabi_dsub                             0x0800071b   Thumb Code     6  dadd.o(.text)
    __aeabi_drsub                            0x08000721   Thumb Code     6  dadd.o(.text)
    __aeabi_dmul                             0x08000727   Thumb Code   228  dmul.o(.text)
    __aeabi_ddiv                             0x0800080b   Thumb Code   222  ddiv.o(.text)
    __aeabi_i2f                              0x080008e9   Thumb Code    18  fflti.o(.text)
    __aeabi_ui2f                             0x080008fb   Thumb Code    10  ffltui.o(.text)
    __aeabi_i2d                              0x08000905   Thumb Code    34  dflti.o(.text)
    __aeabi_d2iz                             0x08000927   Thumb Code    62  dfixi.o(.text)
    __aeabi_f2d                              0x08000965   Thumb Code    38  f2d.o(.text)
    __aeabi_cdcmpeq                          0x0800098d   Thumb Code     0  cdcmple.o(.text)
    __aeabi_cdcmple                          0x0800098d   Thumb Code    48  cdcmple.o(.text)
    __aeabi_cdrcmple                         0x080009bd   Thumb Code    48  cdrcmple.o(.text)
    __aeabi_d2f                              0x080009ed   Thumb Code    56  d2f.o(.text)
    __aeabi_uidiv                            0x08000a25   Thumb Code     0  uidiv.o(.text)
    __aeabi_uidivmod                         0x08000a25   Thumb Code    44  uidiv.o(.text)
    __aeabi_uldivmod                         0x08000a51   Thumb Code    98  uldiv.o(.text)
    __aeabi_llsl                             0x08000ab3   Thumb Code    30  llshl.o(.text)
    _ll_shift_l                              0x08000ab3   Thumb Code     0  llshl.o(.text)
    __aeabi_llsr                             0x08000ad1   Thumb Code    32  llushr.o(.text)
    _ll_ushift_r                             0x08000ad1   Thumb Code     0  llushr.o(.text)
    __aeabi_lasr                             0x08000af1   Thumb Code    36  llsshr.o(.text)
    _ll_sshift_r                             0x08000af1   Thumb Code     0  llsshr.o(.text)
    _sgetc                                   0x08000b15   Thumb Code    30  _sgetc.o(.text)
    _sbackspace                              0x08000b33   Thumb Code    34  _sgetc.o(.text)
    __strtod_int                             0x08000b8b   Thumb Code    90  strtod.o(.text)
    __I$use$fp                               0x08000bf1   Thumb Code     0  iusefp.o(.text)
    _float_round                             0x08000bf1   Thumb Code    18  fepilogue.o(.text)
    _float_epilogue                          0x08000c03   Thumb Code    92  fepilogue.o(.text)
    _double_round                            0x08000c5f   Thumb Code    30  depilogue.o(.text)
    _double_epilogue                         0x08000c7d   Thumb Code   156  depilogue.o(.text)
    __aeabi_ul2d                             0x08000d19   Thumb Code    24  dfltul.o(.text)
    __aeabi_d2ulz                            0x08000d31   Thumb Code    48  dfixul.o(.text)
    __scatterload                            0x08000d61   Thumb Code    28  init.o(.text)
    __scatterload_rt2                        0x08000d61   Thumb Code     0  init.o(.text)
    isspace                                  0x08000d85   Thumb Code    10  isspace_c.o(.text)
    __ctype_lookup                           0x08000d91   Thumb Code    34  ctype_c.o(.text)
    BKP_DeInit                               0x08000db9   Thumb Code    16  stm32f10x_bkp.o(i.BKP_DeInit)
    Beep_Init                                0x08000df5   Thumb Code    18  bsp_beep.o(i.Beep_Init)
    BusFault_Handler                         0x08000e0d   Thumb Code     4  stm32f10x_it.o(i.BusFault_Handler)
    DHT11_Init                               0x08000e3d   Thumb Code    16  bsp_dht11.o(i.DHT11_Init)
    DHT11_Read_TempAndHumidity               0x08000ef1   Thumb Code   160  bsp_dht11.o(i.DHT11_Read_TempAndHumidity)
    DebugMon_Handler                         0x08000f95   Thumb Code     2  stm32f10x_it.o(i.DebugMon_Handler)
    Delay_us                                 0x08000f99   Thumb Code    36  bsp_systick.o(i.Delay_us)
    Delay_xms                                0x08000fc1   Thumb Code    22  stepmotor.o(i.Delay_xms)
    EXTI4_IRQHandler                         0x08000fd9   Thumb Code    86  stm32f10x_it.o(i.EXTI4_IRQHandler)
    EXTI_ClearITPendingBit                   0x08001061   Thumb Code     6  stm32f10x_exti.o(i.EXTI_ClearITPendingBit)
    EXTI_GetITStatus                         0x0800106d   Thumb Code    34  stm32f10x_exti.o(i.EXTI_GetITStatus)
    EXTI_Init                                0x08001095   Thumb Code   142  stm32f10x_exti.o(i.EXTI_Init)
    EXTI_SMOKE_Config                        0x08001129   Thumb Code    72  smoke.o(i.EXTI_SMOKE_Config)
    GPIO_EXTILineConfig                      0x08001175   Thumb Code    60  stm32f10x_gpio.o(i.GPIO_EXTILineConfig)
    GPIO_Init                                0x080011b5   Thumb Code   278  stm32f10x_gpio.o(i.GPIO_Init)
    GPIO_ReadInputDataBit                    0x080012cb   Thumb Code    18  stm32f10x_gpio.o(i.GPIO_ReadInputDataBit)
    GPIO_ResetBits                           0x080012dd   Thumb Code     4  stm32f10x_gpio.o(i.GPIO_ResetBits)
    GPIO_SetBits                             0x080012e1   Thumb Code     4  stm32f10x_gpio.o(i.GPIO_SetBits)
    HardFault_Handler                        0x080012e5   Thumb Code     4  stm32f10x_it.o(i.HardFault_Handler)
    LED_Init                                 0x080012e9   Thumb Code    50  led.o(i.LED_Init)
    Led_Off                                  0x08001321   Thumb Code    48  led.o(i.Led_Off)
    Led_On                                   0x08001355   Thumb Code    48  led.o(i.Led_On)
    MILLIS_Init                              0x08001389   Thumb Code   196  millis.o(i.MILLIS_Init)
    MemManage_Handler                        0x0800144d   Thumb Code     4  stm32f10x_it.o(i.MemManage_Handler)
    Moto_Init                                0x08001451   Thumb Code    46  stepmotor.o(i.Moto_Init)
    Motor_angle                              0x08001485   Thumb Code   136  stepmotor.o(i.Motor_angle)
    Motorccw                                 0x08001521   Thumb Code   614  stepmotor.o(i.Motorccw)
    Motorcw                                  0x0800178d   Thumb Code   614  stepmotor.o(i.Motorcw)
    NMI_Handler                              0x080019f9   Thumb Code     2  stm32f10x_it.o(i.NMI_Handler)
    NVIC_Init                                0x080019fd   Thumb Code   100  misc.o(i.NVIC_Init)
    NVIC_PriorityGroupConfig                 0x08001a6d   Thumb Code    10  misc.o(i.NVIC_PriorityGroupConfig)
    OLED_16x16CN                             0x08001a81   Thumb Code    86  oled.o(i.OLED_16x16CN)
    OLED_16x16CN_S_F                         0x08001add   Thumb Code    86  oled.o(i.OLED_16x16CN_S_F)
    OLED_16x16CN_TIMU                        0x08001b39   Thumb Code    86  oled.o(i.OLED_16x16CN_TIMU)
    OLED_16x16CN_WENDU                       0x08001b95   Thumb Code    86  oled.o(i.OLED_16x16CN_WENDU)
    OLED_16x16CN_W_F                         0x08001bf1   Thumb Code    86  oled.o(i.OLED_16x16CN_W_F)
    OLED_16x16CN_XIAOFANG                    0x08001c4d   Thumb Code    86  oled.o(i.OLED_16x16CN_XIAOFANG)
    OLED_16x16CN_YICHANG                     0x08001ca9   Thumb Code    86  oled.o(i.OLED_16x16CN_YICHANG)
    OLED_16x16CN_ZHENCHANG                   0x08001d05   Thumb Code    86  oled.o(i.OLED_16x16CN_ZHENCHANG)
    OLED_8x16Str                             0x08001d61   Thumb Code   130  oled.o(i.OLED_8x16Str)
    OLED_CLS                                 0x08001de9   Thumb Code    10  oled.o(i.OLED_CLS)
    OLED_Fill                                0x08001df3   Thumb Code    58  oled.o(i.OLED_Fill)
    OLED_Init                                0x08001e2d   Thumb Code   236  oled.o(i.OLED_Init)
    OLED_SetPos                              0x08001f21   Thumb Code    40  oled.o(i.OLED_SetPos)
    OLED_WrCmd                               0x08001f49   Thumb Code    80  oled.o(i.OLED_WrCmd)
    OLED_WrDat                               0x08001f9d   Thumb Code    80  oled.o(i.OLED_WrDat)
    PWR_BackupAccessCmd                      0x08001ff1   Thumb Code     6  stm32f10x_pwr.o(i.PWR_BackupAccessCmd)
    PWR_ClearFlag                            0x08001ffd   Thumb Code    14  stm32f10x_pwr.o(i.PWR_ClearFlag)
    PWR_GetFlagStatus                        0x08002011   Thumb Code    20  stm32f10x_pwr.o(i.PWR_GetFlagStatus)
    PendSV_Handler                           0x08002029   Thumb Code     2  stm32f10x_it.o(i.PendSV_Handler)
    RCC_APB1PeriphClockCmd                   0x0800202d   Thumb Code    26  stm32f10x_rcc.o(i.RCC_APB1PeriphClockCmd)
    RCC_APB2PeriphClockCmd                   0x0800204d   Thumb Code    26  stm32f10x_rcc.o(i.RCC_APB2PeriphClockCmd)
    RCC_BackupResetCmd                       0x0800206d   Thumb Code     6  stm32f10x_rcc.o(i.RCC_BackupResetCmd)
    RCC_GetClocksFreq                        0x08002079   Thumb Code   192  stm32f10x_rcc.o(i.RCC_GetClocksFreq)
    RCC_GetFlagStatus                        0x0800214d   Thumb Code    56  stm32f10x_rcc.o(i.RCC_GetFlagStatus)
    RCC_LSICmd                               0x08002189   Thumb Code     6  stm32f10x_rcc.o(i.RCC_LSICmd)
    RCC_RTCCLKCmd                            0x08002195   Thumb Code     6  stm32f10x_rcc.o(i.RCC_RTCCLKCmd)
    RCC_RTCCLKConfig                         0x080021a1   Thumb Code    12  stm32f10x_rcc.o(i.RCC_RTCCLKConfig)
    RTCAlarm_IRQHandler                      0x080021b1   Thumb Code    26  millis.o(i.RTCAlarm_IRQHandler)
    RTC_ClearITPendingBit                    0x080021cd   Thumb Code    12  stm32f10x_rtc.o(i.RTC_ClearITPendingBit)
    RTC_EnterConfigMode                      0x080021dd   Thumb Code    14  stm32f10x_rtc.o(i.RTC_EnterConfigMode)
    RTC_ExitConfigMode                       0x080021f1   Thumb Code    16  stm32f10x_rtc.o(i.RTC_ExitConfigMode)
    RTC_GetITStatus                          0x08002205   Thumb Code    32  stm32f10x_rtc.o(i.RTC_GetITStatus)
    RTC_IRQHandler                           0x08002229   Thumb Code    46  millis.o(i.RTC_IRQHandler)
    RTC_ITConfig                             0x08002259   Thumb Code    26  stm32f10x_rtc.o(i.RTC_ITConfig)
    RTC_SetCounter                           0x08002279   Thumb Code    24  stm32f10x_rtc.o(i.RTC_SetCounter)
    RTC_SetPrescaler                         0x08002295   Thumb Code    26  stm32f10x_rtc.o(i.RTC_SetPrescaler)
    RTC_WaitForLastTask                      0x080022b5   Thumb Code    16  stm32f10x_rtc.o(i.RTC_WaitForLastTask)
    RTC_WaitForSynchro                       0x080022c9   Thumb Code    30  stm32f10x_rtc.o(i.RTC_WaitForSynchro)
    SVC_Handler                              0x08002313   Thumb Code     2  stm32f10x_it.o(i.SVC_Handler)
    SysTick_Handler                          0x080023fd   Thumb Code     8  stm32f10x_it.o(i.SysTick_Handler)
    SysTick_Init                             0x08002405   Thumb Code   106  bsp_systick.o(i.SysTick_Init)
    SystemInit                               0x08002481   Thumb Code    78  system_stm32f10x.o(i.SystemInit)
    TimingDelay_Decrement                    0x080024e1   Thumb Code    18  bsp_systick.o(i.TimingDelay_Decrement)
    USART3_Config                            0x080024f9   Thumb Code   176  usart3.o(i.USART3_Config)
    USART3_IRQHandler                        0x080025b1   Thumb Code    74  usart3.o(i.USART3_IRQHandler)
    USART_Cmd                                0x0800260d   Thumb Code    24  stm32f10x_usart.o(i.USART_Cmd)
    USART_GetITStatus                        0x08002625   Thumb Code    84  stm32f10x_usart.o(i.USART_GetITStatus)
    USART_ITConfig                           0x08002679   Thumb Code    74  stm32f10x_usart.o(i.USART_ITConfig)
    USART_Init                               0x080026c5   Thumb Code   210  stm32f10x_usart.o(i.USART_Init)
    USART_SendData                           0x0800279d   Thumb Code     8  stm32f10x_usart.o(i.USART_SendData)
    UsageFault_Handler                       0x080027a5   Thumb Code     4  stm32f10x_it.o(i.UsageFault_Handler)
    __0printf                                0x080027a9   Thumb Code    22  printfa.o(i.__0printf)
    __1printf                                0x080027a9   Thumb Code     0  printfa.o(i.__0printf)
    __2printf                                0x080027a9   Thumb Code     0  printfa.o(i.__0printf)
    __c89printf                              0x080027a9   Thumb Code     0  printfa.o(i.__0printf)
    printf                                   0x080027a9   Thumb Code     0  printfa.o(i.__0printf)
    free                                     0x080027c9   Thumb Code    88  mallocr.o(i.__free$realloc)
    malloc                                   0x08002825   Thumb Code    64  mallocr.o(i.__malloc$realloc)
    __scatterload_copy                       0x08002875   Thumb Code    14  handlers.o(i.__scatterload_copy)
    __scatterload_null                       0x08002883   Thumb Code     2  handlers.o(i.__scatterload_null)
    __scatterload_zeroinit                   0x08002885   Thumb Code    14  handlers.o(i.__scatterload_zeroinit)
    _is_digit                                0x08002a19   Thumb Code    14  scanf_fp.o(i._is_digit)
    alert                                    0x08003159   Thumb Code    18  yun.o(i.alert)
    all_init                                 0x08003191   Thumb Code    58  all_init.o(i.all_init)
    cJSON_Delete                             0x0800320d   Thumb Code    84  cjson.o(i.cJSON_Delete)
    cJSON_GetObjectItem                      0x08003265   Thumb Code    18  cjson.o(i.cJSON_GetObjectItem)
    cJSON_Parse                              0x08003291   Thumb Code    16  cjson.o(i.cJSON_Parse)
    cJSON_ParseWithOpts                      0x080032a1   Thumb Code   200  cjson.o(i.cJSON_ParseWithOpts)
    check_status                             0x080033b9   Thumb Code    10  yun.o(i.check_status)
    checkin                                  0x080033d5   Thumb Code    14  yun.o(i.checkin)
    checkout                                 0x0800341d   Thumb Code    14  yun.o(i.checkout)
    display_num                              0x08003469   Thumb Code   100  math_display.o(i.display_num)
    float_to_s                               0x080034cd   Thumb Code   202  floattos.o(i.float_to_s)
    fputc                                    0x080035a5   Thumb Code    32  usart3.o(i.fputc)
    main                                     0x0800366d   Thumb Code   344  main.o(i.main)
    maths                                    0x08003811   Thumb Code    66  math_display.o(i.maths)
    millis                                   0x08003859   Thumb Code    16  millis.o(i.millis)
    processMessage                           0x08003ef9   Thumb Code   532  main.o(i.processMessage)
    realloc                                  0x08004215   Thumb Code   102  mallocr.o(i.realloc)
    say                                      0x08004281   Thumb Code    18  yun.o(i.say)
    show_first                               0x080042b5   Thumb Code    76  oled.o(i.show_first)
    show_state                               0x08004301   Thumb Code    70  oled.o(i.show_state)
    show_stay                                0x08004347   Thumb Code   146  oled.o(i.show_stay)
    strtod                                   0x080043d9   Thumb Code    28  strtod.o(i.strtod)
    update4                                  0x080043f5   Thumb Code    74  yun.o(i.update4)
    update_zhen                              0x08004445   Thumb Code    22  yun.o(i.update_zhen)
    F16x16                                   0x080045b4   Data        1024  oled.o(.constdata)
    F16x16_TIMU                              0x080049b4   Data         256  oled.o(.constdata)
    F16x16_WENDU                             0x08004ab4   Data         192  oled.o(.constdata)
    F16x16_XIAOFANG                          0x08004b74   Data         176  oled.o(.constdata)
    F16x16_ZHENCHANG                         0x08004c24   Data          64  oled.o(.constdata)
    F16x16_YICHANG                           0x08004c64   Data          64  oled.o(.constdata)
    F16x16_S_F                               0x08004ca4   Data          32  oled.o(.constdata)
    F16x16_W_F                               0x08004cc4   Data          32  oled.o(.constdata)
    F6x8                                     0x08004ce4   Data         552  oled.o(.constdata)
    F8X16                                    0x08004f0c   Data        1520  oled.o(.constdata)
    BMP1                                     0x080054fc   Data        1056  oled.o(.constdata)
    __internal_lconv                         0x0800591c   Data          56  ilconv.o(.constdata)
    __ctype_categories                       0x08005954   Data          64  ctype_c.o(.constdata)
    Region$$Table$$Base                      0x080059e8   Number         0  anon$$obj.o(Region$$Table)
    Region$$Table$$Limit                     0x08005a08   Number         0  anon$$obj.o(Region$$Table)
    SystemCoreClock                          0x20000000   Data           4  system_stm32f10x.o(.data)
    AHBPrescTable                            0x20000004   Data          16  system_stm32f10x.o(.data)
    RxCounter                                0x20000028   Data           1  main.o(.data)
    ReceiveState                             0x20000029   Data           1  main.o(.data)
    lastCheckInTime                          0x2000002c   Data           4  main.o(.data)
    lastCheckStatusTime                      0x20000030   Data           4  main.o(.data)
    lastSayTime                              0x20000034   Data           4  main.o(.data)
    lastUpdateTime                           0x20000038   Data           4  main.o(.data)
    __stdout                                 0x20000060   Data           4  stdout.o(.data)
    __microlib_freelist                      0x20000064   Data           4  mvars.o(.data)
    __microlib_freelist_initialised          0x20000068   Data           4  mvars.o(.data)
    aRxBuffer                                0x2000006c   Data        1024  main.o(.bss)
    __heap_base                              0x20000470   Data           0  startup_stm32f10x_md.o(HEAP)
    __heap_limit                             0x20000670   Data           0  startup_stm32f10x_md.o(HEAP)
    __initial_sp                             0x20000a70   Data           0  startup_stm32f10x_md.o(STACK)



==============================================================================

Memory Map of the image

  Image Entry point : 0x080000ed

  Load Region LR_IROM1 (Base: 0x08000000, Size: 0x00005a74, Max: 0x00010000, ABSOLUTE)

    Execution Region ER_IROM1 (Exec base: 0x08000000, Load base: 0x08000000, Size: 0x00005a08, Max: 0x00010000, ABSOLUTE)

    Exec Addr    Load Addr    Size         Type   Attr      Idx    E Section Name        Object

    0x08000000   0x08000000   0x000000ec   Data   RO            3    RESET               startup_stm32f10x_md.o
    0x080000ec   0x080000ec   0x00000000   Code   RO         4322  * .ARM.Collect$$$$00000000  mc_w.l(entry.o)
    0x080000ec   0x080000ec   0x00000004   Code   RO         4662    .ARM.Collect$$$$00000001  mc_w.l(entry2.o)
    0x080000f0   0x080000f0   0x00000004   Code   RO         4665    .ARM.Collect$$$$00000004  mc_w.l(entry5.o)
    0x080000f4   0x080000f4   0x00000000   Code   RO         4667    .ARM.Collect$$$$00000008  mc_w.l(entry7b.o)
    0x080000f4   0x080000f4   0x00000000   Code   RO         4669    .ARM.Collect$$$$0000000A  mc_w.l(entry8b.o)
    0x080000f4   0x080000f4   0x00000008   Code   RO         4670    .ARM.Collect$$$$0000000B  mc_w.l(entry9a.o)
    0x080000fc   0x080000fc   0x00000000   Code   RO         4672    .ARM.Collect$$$$0000000D  mc_w.l(entry10a.o)
    0x080000fc   0x080000fc   0x00000000   Code   RO         4674    .ARM.Collect$$$$0000000F  mc_w.l(entry11a.o)
    0x080000fc   0x080000fc   0x00000004   Code   RO         4663    .ARM.Collect$$$$00002712  mc_w.l(entry2.o)
    0x08000100   0x08000100   0x00000024   Code   RO            4    .text               startup_stm32f10x_md.o
    0x08000124   0x08000124   0x0000000c   Code   RO         4325    .text               mc_w.l(tolower.o)
    0x08000130   0x08000130   0x00000008   Code   RO         4327    .text               mc_w.l(localeconv.o)
    0x08000138   0x08000138   0x00000024   Code   RO         4329    .text               mc_w.l(memcpya.o)
    0x0800015c   0x0800015c   0x00000024   Code   RO         4331    .text               mc_w.l(memseta.o)
    0x08000180   0x08000180   0x0000000e   Code   RO         4333    .text               mc_w.l(strlen.o)
    0x0800018e   0x0800018e   0x0000001c   Code   RO         4335    .text               mc_w.l(strcmp.o)
    0x080001aa   0x080001aa   0x0000001e   Code   RO         4339    .text               mc_w.l(strncmp.o)
    0x080001c8   0x080001c8   0x00000360   Code   RO         4634    .text               mc_w.l(scanf_fp.o)
    0x08000528   0x08000528   0x000000b0   Code   RO         4638    .text               mf_w.l(fadd.o)
    0x080005d8   0x080005d8   0x0000014e   Code   RO         4640    .text               mf_w.l(dadd.o)
    0x08000726   0x08000726   0x000000e4   Code   RO         4642    .text               mf_w.l(dmul.o)
    0x0800080a   0x0800080a   0x000000de   Code   RO         4644    .text               mf_w.l(ddiv.o)
    0x080008e8   0x080008e8   0x00000012   Code   RO         4646    .text               mf_w.l(fflti.o)
    0x080008fa   0x080008fa   0x0000000a   Code   RO         4648    .text               mf_w.l(ffltui.o)
    0x08000904   0x08000904   0x00000022   Code   RO         4650    .text               mf_w.l(dflti.o)
    0x08000926   0x08000926   0x0000003e   Code   RO         4652    .text               mf_w.l(dfixi.o)
    0x08000964   0x08000964   0x00000026   Code   RO         4654    .text               mf_w.l(f2d.o)
    0x0800098a   0x0800098a   0x00000002   PAD
    0x0800098c   0x0800098c   0x00000030   Code   RO         4656    .text               mf_w.l(cdcmple.o)
    0x080009bc   0x080009bc   0x00000030   Code   RO         4658    .text               mf_w.l(cdrcmple.o)
    0x080009ec   0x080009ec   0x00000038   Code   RO         4660    .text               mf_w.l(d2f.o)
    0x08000a24   0x08000a24   0x0000002c   Code   RO         4677    .text               mc_w.l(uidiv.o)
    0x08000a50   0x08000a50   0x00000062   Code   RO         4679    .text               mc_w.l(uldiv.o)
    0x08000ab2   0x08000ab2   0x0000001e   Code   RO         4681    .text               mc_w.l(llshl.o)
    0x08000ad0   0x08000ad0   0x00000020   Code   RO         4683    .text               mc_w.l(llushr.o)
    0x08000af0   0x08000af0   0x00000024   Code   RO         4685    .text               mc_w.l(llsshr.o)
    0x08000b14   0x08000b14   0x00000040   Code   RO         4693    .text               mc_w.l(_sgetc.o)
    0x08000b54   0x08000b54   0x0000009c   Code   RO         4695    .text               mc_w.l(strtod.o)
    0x08000bf0   0x08000bf0   0x00000000   Code   RO         4697    .text               mc_w.l(iusefp.o)
    0x08000bf0   0x08000bf0   0x0000006e   Code   RO         4698    .text               mf_w.l(fepilogue.o)
    0x08000c5e   0x08000c5e   0x000000ba   Code   RO         4700    .text               mf_w.l(depilogue.o)
    0x08000d18   0x08000d18   0x00000018   Code   RO         4702    .text               mf_w.l(dfltul.o)
    0x08000d30   0x08000d30   0x00000030   Code   RO         4704    .text               mf_w.l(dfixul.o)
    0x08000d60   0x08000d60   0x00000024   Code   RO         4706    .text               mc_w.l(init.o)
    0x08000d84   0x08000d84   0x0000000a   Code   RO         4708    .text               mc_w.l(isspace_c.o)
    0x08000d8e   0x08000d8e   0x00000002   PAD
    0x08000d90   0x08000d90   0x00000028   Code   RO         4712    .text               mc_w.l(ctype_c.o)
    0x08000db8   0x08000db8   0x00000010   Code   RO          401    i.BKP_DeInit        stm32f10x_bkp.o
    0x08000dc8   0x08000dc8   0x0000002c   Code   RO         4192    i.Beep_GPIO_Config  bsp_beep.o
    0x08000df4   0x08000df4   0x00000018   Code   RO         4193    i.Beep_Init         bsp_beep.o
    0x08000e0c   0x08000e0c   0x00000004   Code   RO         3177    i.BusFault_Handler  stm32f10x_it.o
    0x08000e10   0x08000e10   0x0000002c   Code   RO         3252    i.DHT11_GPIO_Config  bsp_dht11.o
    0x08000e3c   0x08000e3c   0x00000014   Code   RO         3253    i.DHT11_Init        bsp_dht11.o
    0x08000e50   0x08000e50   0x0000001c   Code   RO         3254    i.DHT11_Mode_IPU    bsp_dht11.o
    0x08000e6c   0x08000e6c   0x00000024   Code   RO         3255    i.DHT11_Mode_Out_PP  bsp_dht11.o
    0x08000e90   0x08000e90   0x00000060   Code   RO         3256    i.DHT11_ReadByte    bsp_dht11.o
    0x08000ef0   0x08000ef0   0x000000a4   Code   RO         3257    i.DHT11_Read_TempAndHumidity  bsp_dht11.o
    0x08000f94   0x08000f94   0x00000002   Code   RO         3178    i.DebugMon_Handler  stm32f10x_it.o
    0x08000f96   0x08000f96   0x00000002   PAD
    0x08000f98   0x08000f98   0x00000028   Code   RO         3422    i.Delay_us          bsp_systick.o
    0x08000fc0   0x08000fc0   0x00000016   Code   RO         4276    i.Delay_xms         stepmotor.o
    0x08000fd6   0x08000fd6   0x00000002   PAD
    0x08000fd8   0x08000fd8   0x00000088   Code   RO         3179    i.EXTI4_IRQHandler  stm32f10x_it.o
    0x08001060   0x08001060   0x0000000c   Code   RO          939    i.EXTI_ClearITPendingBit  stm32f10x_exti.o
    0x0800106c   0x0800106c   0x00000028   Code   RO          943    i.EXTI_GetITStatus  stm32f10x_exti.o
    0x08001094   0x08001094   0x00000094   Code   RO          944    i.EXTI_Init         stm32f10x_exti.o
    0x08001128   0x08001128   0x0000004c   Code   RO         3499    i.EXTI_SMOKE_Config  smoke.o
    0x08001174   0x08001174   0x00000040   Code   RO         1289    i.GPIO_EXTILineConfig  stm32f10x_gpio.o
    0x080011b4   0x080011b4   0x00000116   Code   RO         1292    i.GPIO_Init         stm32f10x_gpio.o
    0x080012ca   0x080012ca   0x00000012   Code   RO         1296    i.GPIO_ReadInputDataBit  stm32f10x_gpio.o
    0x080012dc   0x080012dc   0x00000004   Code   RO         1299    i.GPIO_ResetBits    stm32f10x_gpio.o
    0x080012e0   0x080012e0   0x00000004   Code   RO         1300    i.GPIO_SetBits      stm32f10x_gpio.o
    0x080012e4   0x080012e4   0x00000004   Code   RO         3180    i.HardFault_Handler  stm32f10x_it.o
    0x080012e8   0x080012e8   0x00000038   Code   RO         4089    i.LED_Init          led.o
    0x08001320   0x08001320   0x00000034   Code   RO         4090    i.Led_Off           led.o
    0x08001354   0x08001354   0x00000034   Code   RO         4091    i.Led_On            led.o
    0x08001388   0x08001388   0x000000c4   Code   RO         4119    i.MILLIS_Init       millis.o
    0x0800144c   0x0800144c   0x00000004   Code   RO         3181    i.MemManage_Handler  stm32f10x_it.o
    0x08001450   0x08001450   0x00000034   Code   RO         4277    i.Moto_Init         stepmotor.o
    0x08001484   0x08001484   0x0000009c   Code   RO         4279    i.Motor_angle       stepmotor.o
    0x08001520   0x08001520   0x0000026c   Code   RO         4280    i.Motorccw          stepmotor.o
    0x0800178c   0x0800178c   0x0000026c   Code   RO         4281    i.Motorcw           stepmotor.o
    0x080019f8   0x080019f8   0x00000002   Code   RO         3182    i.NMI_Handler       stm32f10x_it.o
    0x080019fa   0x080019fa   0x00000002   PAD
    0x080019fc   0x080019fc   0x00000070   Code   RO          137    i.NVIC_Init         misc.o
    0x08001a6c   0x08001a6c   0x00000014   Code   RO          138    i.NVIC_PriorityGroupConfig  misc.o
    0x08001a80   0x08001a80   0x0000005c   Code   RO         3290    i.OLED_16x16CN      oled.o
    0x08001adc   0x08001adc   0x0000005c   Code   RO         3291    i.OLED_16x16CN_S_F  oled.o
    0x08001b38   0x08001b38   0x0000005c   Code   RO         3292    i.OLED_16x16CN_TIMU  oled.o
    0x08001b94   0x08001b94   0x0000005c   Code   RO         3293    i.OLED_16x16CN_WENDU  oled.o
    0x08001bf0   0x08001bf0   0x0000005c   Code   RO         3294    i.OLED_16x16CN_W_F  oled.o
    0x08001c4c   0x08001c4c   0x0000005c   Code   RO         3295    i.OLED_16x16CN_XIAOFANG  oled.o
    0x08001ca8   0x08001ca8   0x0000005c   Code   RO         3296    i.OLED_16x16CN_YICHANG  oled.o
    0x08001d04   0x08001d04   0x0000005c   Code   RO         3297    i.OLED_16x16CN_ZHENCHANG  oled.o
    0x08001d60   0x08001d60   0x00000088   Code   RO         3299    i.OLED_8x16Str      oled.o
    0x08001de8   0x08001de8   0x0000000a   Code   RO         3301    i.OLED_CLS          oled.o
    0x08001df2   0x08001df2   0x0000003a   Code   RO         3302    i.OLED_Fill         oled.o
    0x08001e2c   0x08001e2c   0x000000f4   Code   RO         3303    i.OLED_Init         oled.o
    0x08001f20   0x08001f20   0x00000028   Code   RO         3304    i.OLED_SetPos       oled.o
    0x08001f48   0x08001f48   0x00000054   Code   RO         3305    i.OLED_WrCmd        oled.o
    0x08001f9c   0x08001f9c   0x00000054   Code   RO         3306    i.OLED_WrDat        oled.o
    0x08001ff0   0x08001ff0   0x0000000c   Code   RO         1646    i.PWR_BackupAccessCmd  stm32f10x_pwr.o
    0x08001ffc   0x08001ffc   0x00000014   Code   RO         1647    i.PWR_ClearFlag     stm32f10x_pwr.o
    0x08002010   0x08002010   0x00000018   Code   RO         1651    i.PWR_GetFlagStatus  stm32f10x_pwr.o
    0x08002028   0x08002028   0x00000002   Code   RO         3183    i.PendSV_Handler    stm32f10x_it.o
    0x0800202a   0x0800202a   0x00000002   PAD
    0x0800202c   0x0800202c   0x00000020   Code   RO         1708    i.RCC_APB1PeriphClockCmd  stm32f10x_rcc.o
    0x0800204c   0x0800204c   0x00000020   Code   RO         1710    i.RCC_APB2PeriphClockCmd  stm32f10x_rcc.o
    0x0800206c   0x0800206c   0x0000000c   Code   RO         1713    i.RCC_BackupResetCmd  stm32f10x_rcc.o
    0x08002078   0x08002078   0x000000d4   Code   RO         1718    i.RCC_GetClocksFreq  stm32f10x_rcc.o
    0x0800214c   0x0800214c   0x0000003c   Code   RO         1719    i.RCC_GetFlagStatus  stm32f10x_rcc.o
    0x08002188   0x08002188   0x0000000c   Code   RO         1727    i.RCC_LSICmd        stm32f10x_rcc.o
    0x08002194   0x08002194   0x0000000c   Code   RO         1733    i.RCC_RTCCLKCmd     stm32f10x_rcc.o
    0x080021a0   0x080021a0   0x00000010   Code   RO         1734    i.RCC_RTCCLKConfig  stm32f10x_rcc.o
    0x080021b0   0x080021b0   0x0000001a   Code   RO         4120    i.RTCAlarm_IRQHandler  millis.o
    0x080021ca   0x080021ca   0x00000002   PAD
    0x080021cc   0x080021cc   0x00000010   Code   RO         1907    i.RTC_ClearITPendingBit  stm32f10x_rtc.o
    0x080021dc   0x080021dc   0x00000014   Code   RO         1908    i.RTC_EnterConfigMode  stm32f10x_rtc.o
    0x080021f0   0x080021f0   0x00000014   Code   RO         1909    i.RTC_ExitConfigMode  stm32f10x_rtc.o
    0x08002204   0x08002204   0x00000024   Code   RO         1913    i.RTC_GetITStatus   stm32f10x_rtc.o
    0x08002228   0x08002228   0x0000002e   Code   RO         4121    i.RTC_IRQHandler    millis.o
    0x08002256   0x08002256   0x00000002   PAD
    0x08002258   0x08002258   0x00000020   Code   RO         1914    i.RTC_ITConfig      stm32f10x_rtc.o
    0x08002278   0x08002278   0x0000001c   Code   RO         1916    i.RTC_SetCounter    stm32f10x_rtc.o
    0x08002294   0x08002294   0x00000020   Code   RO         1917    i.RTC_SetPrescaler  stm32f10x_rtc.o
    0x080022b4   0x080022b4   0x00000014   Code   RO         1918    i.RTC_WaitForLastTask  stm32f10x_rtc.o
    0x080022c8   0x080022c8   0x00000024   Code   RO         1919    i.RTC_WaitForSynchro  stm32f10x_rtc.o
    0x080022ec   0x080022ec   0x00000026   Code   RO         3500    i.SMOKE_NVIC_Configuration  smoke.o
    0x08002312   0x08002312   0x00000002   Code   RO         3184    i.SVC_Handler       stm32f10x_it.o
    0x08002314   0x08002314   0x00000008   Code   RO           24    i.SetSysClock       system_stm32f10x.o
    0x0800231c   0x0800231c   0x000000e0   Code   RO           25    i.SetSysClockTo72   system_stm32f10x.o
    0x080023fc   0x080023fc   0x00000008   Code   RO         3185    i.SysTick_Handler   stm32f10x_it.o
    0x08002404   0x08002404   0x0000007c   Code   RO         3424    i.SysTick_Init      bsp_systick.o
    0x08002480   0x08002480   0x00000060   Code   RO           27    i.SystemInit        system_stm32f10x.o
    0x080024e0   0x080024e0   0x00000018   Code   RO         3425    i.TimingDelay_Decrement  bsp_systick.o
    0x080024f8   0x080024f8   0x000000b8   Code   RO         4152    i.USART3_Config     usart3.o
    0x080025b0   0x080025b0   0x0000005c   Code   RO         4153    i.USART3_IRQHandler  usart3.o
    0x0800260c   0x0800260c   0x00000018   Code   RO         2878    i.USART_Cmd         stm32f10x_usart.o
    0x08002624   0x08002624   0x00000054   Code   RO         2882    i.USART_GetITStatus  stm32f10x_usart.o
    0x08002678   0x08002678   0x0000004a   Code   RO         2884    i.USART_ITConfig    stm32f10x_usart.o
    0x080026c2   0x080026c2   0x00000002   PAD
    0x080026c4   0x080026c4   0x000000d8   Code   RO         2885    i.USART_Init        stm32f10x_usart.o
    0x0800279c   0x0800279c   0x00000008   Code   RO         2895    i.USART_SendData    stm32f10x_usart.o
    0x080027a4   0x080027a4   0x00000004   Code   RO         3186    i.UsageFault_Handler  stm32f10x_it.o
    0x080027a8   0x080027a8   0x00000020   Code   RO         4576    i.__0printf         mc_w.l(printfa.o)
    0x080027c8   0x080027c8   0x0000005c   Code   RO         4608    i.__free$realloc    mc_w.l(mallocr.o)
    0x08002824   0x08002824   0x00000050   Code   RO         4609    i.__malloc$realloc  mc_w.l(mallocr.o)
    0x08002874   0x08002874   0x0000000e   Code   RO         4717    i.__scatterload_copy  mc_w.l(handlers.o)
    0x08002882   0x08002882   0x00000002   Code   RO         4718    i.__scatterload_null  mc_w.l(handlers.o)
    0x08002884   0x08002884   0x0000000e   Code   RO         4719    i.__scatterload_zeroinit  mc_w.l(handlers.o)
    0x08002892   0x08002892   0x00000002   PAD
    0x08002894   0x08002894   0x00000184   Code   RO         4583    i._fp_digits        mc_w.l(printfa.o)
    0x08002a18   0x08002a18   0x0000000e   Code   RO         4636    i._is_digit         mc_w.l(scanf_fp.o)
    0x08002a26   0x08002a26   0x00000002   PAD
    0x08002a28   0x08002a28   0x000006dc   Code   RO         4584    i._printf_core      mc_w.l(printfa.o)
    0x08003104   0x08003104   0x00000024   Code   RO         4585    i._printf_post_padding  mc_w.l(printfa.o)
    0x08003128   0x08003128   0x0000002e   Code   RO         4586    i._printf_pre_padding  mc_w.l(printfa.o)
    0x08003156   0x08003156   0x00000002   PAD
    0x08003158   0x08003158   0x00000038   Code   RO         4209    i.alert             yun.o
    0x08003190   0x08003190   0x00000040   Code   RO         3538    i.all_init          all_init.o
    0x080031d0   0x080031d0   0x0000003a   Code   RO         3551    i.buffer_skip_whitespace  cjson.o
    0x0800320a   0x0800320a   0x00000002   PAD
    0x0800320c   0x0800320c   0x00000058   Code   RO         3571    i.cJSON_Delete      cjson.o
    0x08003264   0x08003264   0x00000012   Code   RO         3583    i.cJSON_GetObjectItem  cjson.o
    0x08003276   0x08003276   0x0000001a   Code   RO         3599    i.cJSON_New_Item    cjson.o
    0x08003290   0x08003290   0x00000010   Code   RO         3600    i.cJSON_Parse       cjson.o
    0x080032a0   0x080032a0   0x000000d0   Code   RO         3601    i.cJSON_ParseWithOpts  cjson.o
    0x08003370   0x08003370   0x00000048   Code   RO         3615    i.case_insensitive_strcmp  cjson.o
    0x080033b8   0x080033b8   0x0000001c   Code   RO         4210    i.check_status      yun.o
    0x080033d4   0x080033d4   0x00000048   Code   RO         4211    i.checkin           yun.o
    0x0800341c   0x0800341c   0x0000004c   Code   RO         4212    i.checkout          yun.o
    0x08003468   0x08003468   0x00000064   Code   RO         3476    i.display_num       math_display.o
    0x080034cc   0x080034cc   0x000000d8   Code   RO         3458    i.float_to_s        floattos.o
    0x080035a4   0x080035a4   0x00000024   Code   RO         4154    i.fputc             usart3.o
    0x080035c8   0x080035c8   0x0000000e   Code   RO         3619    i.get_decimal_point  cjson.o
    0x080035d6   0x080035d6   0x00000044   Code   RO         3620    i.get_object_item   cjson.o
    0x0800361a   0x0800361a   0x00000002   PAD
    0x0800361c   0x0800361c   0x00000050   Code   RO         4610    i.internal_alloc    mc_w.l(mallocr.o)
    0x0800366c   0x0800366c   0x000001a4   Code   RO         3108    i.main              main.o
    0x08003810   0x08003810   0x00000048   Code   RO         3477    i.maths             math_display.o
    0x08003858   0x08003858   0x00000014   Code   RO         4122    i.millis            millis.o
    0x0800386c   0x0800386c   0x000000f4   Code   RO         3621    i.parse_array       cjson.o
    0x08003960   0x08003960   0x0000005a   Code   RO         3622    i.parse_hex4        cjson.o
    0x080039ba   0x080039ba   0x00000002   PAD
    0x080039bc   0x080039bc   0x00000138   Code   RO         3623    i.parse_number      cjson.o
    0x08003af4   0x08003af4   0x0000013a   Code   RO         3624    i.parse_object      cjson.o
    0x08003c2e   0x08003c2e   0x0000018c   Code   RO         3625    i.parse_string      cjson.o
    0x08003dba   0x08003dba   0x00000002   PAD
    0x08003dbc   0x08003dbc   0x0000013c   Code   RO         3626    i.parse_value       cjson.o
    0x08003ef8   0x08003ef8   0x0000031c   Code   RO         3109    i.processMessage    main.o
    0x08004214   0x08004214   0x0000006c   Code   RO         4611    i.realloc           mc_w.l(mallocr.o)
    0x08004280   0x08004280   0x00000034   Code   RO         4213    i.say               yun.o
    0x080042b4   0x080042b4   0x0000004c   Code   RO         3307    i.show_first        oled.o
    0x08004300   0x08004300   0x00000046   Code   RO         3308    i.show_state        oled.o
    0x08004346   0x08004346   0x00000092   Code   RO         3309    i.show_stay         oled.o
    0x080043d8   0x080043d8   0x0000001c   Code   RO         4319    i.strtod            m_ws.l(strtod.o)
    0x080043f4   0x080043f4   0x00000050   Code   RO         4217    i.update4           yun.o
    0x08004444   0x08004444   0x00000044   Code   RO         4218    i.update_zhen       yun.o
    0x08004488   0x08004488   0x0000012c   Code   RO         3637    i.utf16_literal_to_utf8  cjson.o
    0x080045b4   0x080045b4   0x00001368   Data   RO         3310    .constdata          oled.o
    0x0800591c   0x0800591c   0x00000038   Data   RO         4687    .constdata          mc_w.l(ilconv.o)
    0x08005954   0x08005954   0x00000040   Data   RO         4713    .constdata          mc_w.l(ctype_c.o)
    0x08005994   0x08005994   0x0000004c   Data   RO         4219    .conststring        yun.o
    0x080059e0   0x080059e0   0x00000005   Data   RO         4688    .conststring        mc_w.l(ilconv.o)
    0x080059e5   0x080059e5   0x00000003   PAD
    0x080059e8   0x080059e8   0x00000020   Data   RO         4715    Region$$Table       anon$$obj.o


    Execution Region RW_IRAM1 (Exec base: 0x20000000, Load base: 0x08005a08, Size: 0x00000a70, Max: 0x00005000, ABSOLUTE)

    Exec Addr    Load Addr    Size         Type   Attr      Idx    E Section Name        Object

    0x20000000   0x08005a08   0x00000014   Data   RW           28    .data               system_stm32f10x.o
    0x20000014   0x08005a1c   0x00000014   Data   RW         1738    .data               stm32f10x_rcc.o
    0x20000028   0x08005a30   0x00000014   Data   RW         3112    .data               main.o
    0x2000003c   0x08005a44   0x00000004   Data   RW         3426    .data               bsp_systick.o
    0x20000040   0x08005a48   0x0000000a   Data   RW         3459    .data               floattos.o
    0x2000004a   0x08005a52   0x00000002   PAD
    0x2000004c   0x08005a54   0x00000014   Data   RW         3639    .data               cjson.o
    0x20000060   0x08005a68   0x00000004   Data   RW         4676    .data               mc_w.l(stdout.o)
    0x20000064   0x08005a6c   0x00000004   Data   RW         4689    .data               mc_w.l(mvars.o)
    0x20000068   0x08005a70   0x00000004   Data   RW         4690    .data               mc_w.l(mvars.o)
    0x2000006c        -       0x00000400   Zero   RW         3110    .bss                main.o
    0x2000046c   0x08005a74   0x00000004   PAD
    0x20000470        -       0x00000200   Zero   RW            2    HEAP                startup_stm32f10x_md.o
    0x20000670        -       0x00000400   Zero   RW            1    STACK               startup_stm32f10x_md.o


==============================================================================

Image component sizes


      Code (inc. data)   RO Data    RW Data    ZI Data      Debug   Object Name

        64          6          0          0          0        467   all_init.o
        68         10          0          0          0        864   bsp_beep.o
       388         30          0          0          0       3338   bsp_dht11.o
       188         28          0          4          0      17189   bsp_systick.o
      2540         62          0         20          0      18041   cjson.o
         0          0          0          0          0       4500   core_cm3.o
       216         14          0         10          0       1241   floattos.o
       160         14          0          0          0       1454   led.o
      1216        340          0         20       1024       7600   main.o
       172          6          0          0          0       1326   math_display.o
       288          4          0          0          0       1990   millis.o
       132         22          0          0          0       1495   misc.o
      1684         70       4968          0          0      12062   oled.o
       114          4          0          0          0        976   smoke.o
        36          8        236          0       1536        844   startup_stm32f10x_md.o
      1470         38          0          0          0       3371   stepmotor.o
        16          0          0          0          0        469   stm32f10x_bkp.o
       200         18          0          0          0       2056   stm32f10x_exti.o
       368          4          0          0          0       4186   stm32f10x_gpio.o
       168         50          0          0          0       4257   stm32f10x_it.o
        56         16          0          0          0       1542   stm32f10x_pwr.o
       388         58          0         20          0       6983   stm32f10x_rcc.o
       240         44          0          0          0       4527   stm32f10x_rtc.o
       406          6          0          0          0       4895   stm32f10x_usart.o
       328         28          0         20          0     230937   system_stm32f10x.o
       312         30          0          0          0       1724   usart3.o
       432        262         76          0          0       3722   yun.o

    ----------------------------------------------------------------------
     11672       1172       5312         96       2564     342056   Object Totals
         0          0         32          0          0          0   (incl. Generated)
        22          0          0          2          4          0   (incl. Padding)

    ----------------------------------------------------------------------

      Code (inc. data)   RO Data    RW Data    ZI Data      Debug   Library Member Name

        28          0          0          0          0         80   strtod.o
        64          0          0          0          0         84   _sgetc.o
        40          6         64          0          0         68   ctype_c.o
         0          0          0          0          0          0   entry.o
         0          0          0          0          0          0   entry10a.o
         0          0          0          0          0          0   entry11a.o
         8          4          0          0          0          0   entry2.o
         4          0          0          0          0          0   entry5.o
         0          0          0          0          0          0   entry7b.o
         0          0          0          0          0          0   entry8b.o
         8          4          0          0          0          0   entry9a.o
        30          0          0          0          0          0   handlers.o
         0          0         61          0          0          0   ilconv.o
        36          8          0          0          0         68   init.o
        10          0          0          0          0         68   isspace_c.o
         0          0          0          0          0          0   iusefp.o
        30          0          0          0          0         68   llshl.o
        36          0          0          0          0         68   llsshr.o
        32          0          0          0          0         68   llushr.o
         8          4          0          0          0         68   localeconv.o
       360         30          0          0          0        356   mallocr.o
        36          0          0          0          0         68   memcpya.o
        36          0          0          0          0        108   memseta.o
         0          0          0          8          0          0   mvars.o
      2258         90          0          0          0        452   printfa.o
       878         12          0          0          0        216   scanf_fp.o
         0          0          0          4          0          0   stdout.o
        28          0          0          0          0         76   strcmp.o
        14          0          0          0          0         68   strlen.o
        30          0          0          0          0         80   strncmp.o
       156         12          0          0          0        120   strtod.o
        12          0          0          0          0         68   tolower.o
        44          0          0          0          0         80   uidiv.o
        98          0          0          0          0         92   uldiv.o
        48          0          0          0          0         68   cdcmple.o
        48          0          0          0          0         68   cdrcmple.o
        56          0          0          0          0         88   d2f.o
       334          0          0          0          0        148   dadd.o
       222          0          0          0          0        100   ddiv.o
       186          0          0          0          0        176   depilogue.o
        62          0          0          0          0         80   dfixi.o
        48          0          0          0          0         68   dfixul.o
        34          0          0          0          0         76   dflti.o
        24          0          0          0          0         76   dfltul.o
       228          0          0          0          0         96   dmul.o
        38          0          0          0          0         68   f2d.o
       176          0          0          0          0        140   fadd.o
       110          0          0          0          0        168   fepilogue.o
        18          0          0          0          0         68   fflti.o
        10          0          0          0          0         68   ffltui.o

    ----------------------------------------------------------------------
      5936        170        128         12          0       3980   Library Totals
        10          0          3          0          0          0   (incl. Padding)

    ----------------------------------------------------------------------

      Code (inc. data)   RO Data    RW Data    ZI Data      Debug   Library Name

        28          0          0          0          0         80   m_ws.l
      4256        170        125         12          0       2344   mc_w.l
      1642          0          0          0          0       1556   mf_w.l

    ----------------------------------------------------------------------
      5936        170        128         12          0       3980   Library Totals

    ----------------------------------------------------------------------

==============================================================================


      Code (inc. data)   RO Data    RW Data    ZI Data      Debug   

     17608       1342       5440        108       2564     337868   Grand Totals
     17608       1342       5440        108       2564     337868   ELF Image Totals
     17608       1342       5440        108          0          0   ROM Totals

==============================================================================

    Total RO  Size (Code + RO Data)                23048 (  22.51kB)
    Total RW  Size (RW Data + ZI Data)              2672 (   2.61kB)
    Total ROM Size (Code + RO Data + RW Data)      23156 (  22.61kB)

==============================================================================

